ARM GAS  C:\Users\raymond\AppData\Local\Temp\cctozp4c.s 			page 1


   1              		.cpu cortex-m0plus
   2              		.fpu softvfp
   3              		.eabi_attribute 20, 1
   4              		.eabi_attribute 21, 1
   5              		.eabi_attribute 23, 3
   6              		.eabi_attribute 24, 1
   7              		.eabi_attribute 25, 1
   8              		.eabi_attribute 26, 1
   9              		.eabi_attribute 30, 1
  10              		.eabi_attribute 34, 0
  11              		.eabi_attribute 18, 4
  12              		.code	16
  13              		.file	"CSD_Control.c"
  14              		.text
  15              	.Ltext0:
  16              		.cfi_sections	.debug_frame
  17              		.section	.text.CSD_Initialize,"ax",%progbits
  18              		.align	2
  19              		.global	CSD_Initialize
  20              		.code	16
  21              		.thumb_func
  22              		.type	CSD_Initialize, %function
  23              	CSD_Initialize:
  24              	.LFB2:
  25              		.file 1 "Generated_Source\\PSoC4\\CSD_Control.c"
   1:Generated_Source\PSoC4/CSD_Control.c **** /***************************************************************************//**
   2:Generated_Source\PSoC4/CSD_Control.c **** * \file CSD_Control.c
   3:Generated_Source\PSoC4/CSD_Control.c **** * \version 3.0
   4:Generated_Source\PSoC4/CSD_Control.c **** *
   5:Generated_Source\PSoC4/CSD_Control.c **** * \brief
   6:Generated_Source\PSoC4/CSD_Control.c **** * This file provides the source code to the Control module API of the Component.
   7:Generated_Source\PSoC4/CSD_Control.c **** *
   8:Generated_Source\PSoC4/CSD_Control.c **** * \see CapSense P4 v3.0 Datasheet
   9:Generated_Source\PSoC4/CSD_Control.c **** *
  10:Generated_Source\PSoC4/CSD_Control.c **** *//*****************************************************************************
  11:Generated_Source\PSoC4/CSD_Control.c **** * Copyright (2016), Cypress Semiconductor Corporation.
  12:Generated_Source\PSoC4/CSD_Control.c **** ********************************************************************************
  13:Generated_Source\PSoC4/CSD_Control.c **** * This software is owned by Cypress Semiconductor Corporation (Cypress) and is
  14:Generated_Source\PSoC4/CSD_Control.c **** * protected by and subject to worldwide patent protection (United States and
  15:Generated_Source\PSoC4/CSD_Control.c **** * foreign), United States copyright laws and international treaty provisions.
  16:Generated_Source\PSoC4/CSD_Control.c **** * Cypress hereby grants to licensee a personal, non-exclusive, non-transferable
  17:Generated_Source\PSoC4/CSD_Control.c **** * license to copy, use, modify, create derivative works of, and compile the
  18:Generated_Source\PSoC4/CSD_Control.c **** * Cypress Source Code and derivative works for the sole purpose of creating
  19:Generated_Source\PSoC4/CSD_Control.c **** * custom software in support of licensee product to be used only in conjunction
  20:Generated_Source\PSoC4/CSD_Control.c **** * with a Cypress integrated circuit as specified in the applicable agreement.
  21:Generated_Source\PSoC4/CSD_Control.c **** * Any reproduction, modification, translation, compilation, or representation of
  22:Generated_Source\PSoC4/CSD_Control.c **** * this software except as specified above is prohibited without the express
  23:Generated_Source\PSoC4/CSD_Control.c **** * written permission of Cypress.
  24:Generated_Source\PSoC4/CSD_Control.c **** *
  25:Generated_Source\PSoC4/CSD_Control.c **** * Disclaimer: CYPRESS MAKES NO WARRANTY OF ANY KIND, EXPRESS OR IMPLIED, WITH
  26:Generated_Source\PSoC4/CSD_Control.c **** * REGARD TO THIS MATERIAL, INCLUDING, BUT NOT LIMITED TO, THE IMPLIED
  27:Generated_Source\PSoC4/CSD_Control.c **** * WARRANTIES OF MERCHANTABILITY AND FITNESS FOR A PARTICULAR PURPOSE.
  28:Generated_Source\PSoC4/CSD_Control.c **** * Cypress reserves the right to make changes without further notice to the
  29:Generated_Source\PSoC4/CSD_Control.c **** * materials described herein. Cypress does not assume any liability arising out
  30:Generated_Source\PSoC4/CSD_Control.c **** * of the application or use of any product or circuit described herein. Cypress
  31:Generated_Source\PSoC4/CSD_Control.c **** * does not authorize its products for use as critical components in life-support
  32:Generated_Source\PSoC4/CSD_Control.c **** * systems where a malfunction or failure may reasonably be expected to result in
ARM GAS  C:\Users\raymond\AppData\Local\Temp\cctozp4c.s 			page 2


  33:Generated_Source\PSoC4/CSD_Control.c **** * significant injury to the user. The inclusion of Cypress' product in a life-
  34:Generated_Source\PSoC4/CSD_Control.c **** * support systems application implies that the manufacturer assumes all risk of
  35:Generated_Source\PSoC4/CSD_Control.c **** * such use and in doing so indemnifies Cypress against all charges. Use may be
  36:Generated_Source\PSoC4/CSD_Control.c **** * limited by and subject to the applicable Cypress software license agreement.
  37:Generated_Source\PSoC4/CSD_Control.c **** *******************************************************************************/
  38:Generated_Source\PSoC4/CSD_Control.c **** 
  39:Generated_Source\PSoC4/CSD_Control.c **** #include "cytypes.h"
  40:Generated_Source\PSoC4/CSD_Control.c **** #include "CyLib.h"
  41:Generated_Source\PSoC4/CSD_Control.c **** #include "cyPm.h"
  42:Generated_Source\PSoC4/CSD_Control.c **** #include "CSD_Configuration.h"
  43:Generated_Source\PSoC4/CSD_Control.c **** #include "CSD_Structure.h"
  44:Generated_Source\PSoC4/CSD_Control.c **** #include "CSD_Control.h"
  45:Generated_Source\PSoC4/CSD_Control.c **** #include "CSD_Processing.h"
  46:Generated_Source\PSoC4/CSD_Control.c **** #include "CSD_Filter.h"
  47:Generated_Source\PSoC4/CSD_Control.c **** #include "CSD_Sensing.h"
  48:Generated_Source\PSoC4/CSD_Control.c **** #include "CSD_Tuner.h"
  49:Generated_Source\PSoC4/CSD_Control.c **** 
  50:Generated_Source\PSoC4/CSD_Control.c **** #if (0u != CSD_ADC_EN)
  51:Generated_Source\PSoC4/CSD_Control.c ****     #include "CSD_Adc.h"
  52:Generated_Source\PSoC4/CSD_Control.c **** #endif /* (0u != CSD_ADC_EN) */
  53:Generated_Source\PSoC4/CSD_Control.c **** /**************************************************************************************************
  54:Generated_Source\PSoC4/CSD_Control.c **** * Local definition
  55:Generated_Source\PSoC4/CSD_Control.c **** ***************************************************************************************************
  56:Generated_Source\PSoC4/CSD_Control.c **** #define CSD_INIT_DONE   (1u)
  57:Generated_Source\PSoC4/CSD_Control.c **** #define CSD_INIT_NEEDED (0u)
  58:Generated_Source\PSoC4/CSD_Control.c **** 
  59:Generated_Source\PSoC4/CSD_Control.c **** /**************************************************************************************************
  60:Generated_Source\PSoC4/CSD_Control.c **** * Local variables
  61:Generated_Source\PSoC4/CSD_Control.c **** ***************************************************************************************************
  62:Generated_Source\PSoC4/CSD_Control.c **** static uint8 CSD_InitVar = CSD_INIT_NEEDED;
  63:Generated_Source\PSoC4/CSD_Control.c **** 
  64:Generated_Source\PSoC4/CSD_Control.c **** /*******************************************************************************
  65:Generated_Source\PSoC4/CSD_Control.c **** * Function Name: CSD_Start
  66:Generated_Source\PSoC4/CSD_Control.c **** ****************************************************************************//**
  67:Generated_Source\PSoC4/CSD_Control.c **** *
  68:Generated_Source\PSoC4/CSD_Control.c **** * \brief
  69:Generated_Source\PSoC4/CSD_Control.c **** *  Initializes component hardware and firmware modules. This function should be 
  70:Generated_Source\PSoC4/CSD_Control.c **** *  called by the application program prior to calling any other function of the 
  71:Generated_Source\PSoC4/CSD_Control.c **** *  component.
  72:Generated_Source\PSoC4/CSD_Control.c **** *
  73:Generated_Source\PSoC4/CSD_Control.c **** * \details
  74:Generated_Source\PSoC4/CSD_Control.c **** *  This function initializes the component hardware and firmware modules and 
  75:Generated_Source\PSoC4/CSD_Control.c **** *  should be called by the application program prior to calling any other API
  76:Generated_Source\PSoC4/CSD_Control.c **** *  of the component. When this function is called, the following tasks are 
  77:Generated_Source\PSoC4/CSD_Control.c **** *  executed as part of the initialization process:
  78:Generated_Source\PSoC4/CSD_Control.c **** *    1. Initialize the registers of the \ref group_structures variable 
  79:Generated_Source\PSoC4/CSD_Control.c **** *       CSD_dsRam based on the user selection in component 
  80:Generated_Source\PSoC4/CSD_Control.c **** *       configuration wizard. 
  81:Generated_Source\PSoC4/CSD_Control.c **** *    2. Configure the hardware to perform capacitive sensing.
  82:Generated_Source\PSoC4/CSD_Control.c **** *    3. If SmartSense Auto-tuning is selected for the CSD Tuning mode in the 
  83:Generated_Source\PSoC4/CSD_Control.c **** *       Basic tab, the auto-tuning algorithm is executed to set the optimal 
  84:Generated_Source\PSoC4/CSD_Control.c **** *       values for the hardware parameters of the widgets/sensors.
  85:Generated_Source\PSoC4/CSD_Control.c **** *    4. Calibrate the sensors and find the optimal values for IDACs of each 
  86:Generated_Source\PSoC4/CSD_Control.c **** *       widget / sensor, if the Enable IDAC auto-calibration is enabled in the
  87:Generated_Source\PSoC4/CSD_Control.c **** *       CSD Setting or CSX Setting tabs.
  88:Generated_Source\PSoC4/CSD_Control.c **** *    5. Perform a scan for all sensors and initialize the baseline history. 
  89:Generated_Source\PSoC4/CSD_Control.c **** *       During the scan, CPU is in the sleep mode to save power.
ARM GAS  C:\Users\raymond\AppData\Local\Temp\cctozp4c.s 			page 3


  90:Generated_Source\PSoC4/CSD_Control.c **** *    6. If the firmware filters are enabled in the Advanced General tab, the 
  91:Generated_Source\PSoC4/CSD_Control.c **** *       filter histories are also initialized.
  92:Generated_Source\PSoC4/CSD_Control.c **** 
  93:Generated_Source\PSoC4/CSD_Control.c **** *  Any next call of this API repeats an initialization process except for 
  94:Generated_Source\PSoC4/CSD_Control.c **** *  data structure initialization. Therefore, it is possible to change the 
  95:Generated_Source\PSoC4/CSD_Control.c **** *  component configuration from the application program by writing to the 
  96:Generated_Source\PSoC4/CSD_Control.c **** *  data structure registers and calling this function again. This is also 
  97:Generated_Source\PSoC4/CSD_Control.c **** *  done inside the CSD_RunTuner() function when a restart command 
  98:Generated_Source\PSoC4/CSD_Control.c **** *  is received. 
  99:Generated_Source\PSoC4/CSD_Control.c **** *
 100:Generated_Source\PSoC4/CSD_Control.c **** *  When the component operation is stopped by the CSD_Stop() 
 101:Generated_Source\PSoC4/CSD_Control.c **** *  function, the CSD_Start() function repeats an initialization 
 102:Generated_Source\PSoC4/CSD_Control.c **** *  process including data structure initialization.
 103:Generated_Source\PSoC4/CSD_Control.c **** *
 104:Generated_Source\PSoC4/CSD_Control.c **** * \return
 105:Generated_Source\PSoC4/CSD_Control.c **** *  Returns the status of the initialization process. If CYRET_SUCCESS is not 
 106:Generated_Source\PSoC4/CSD_Control.c **** *  received, some of the initialization fails and the component may not operate
 107:Generated_Source\PSoC4/CSD_Control.c **** *  as expected.
 108:Generated_Source\PSoC4/CSD_Control.c **** *
 109:Generated_Source\PSoC4/CSD_Control.c **** *******************************************************************************/
 110:Generated_Source\PSoC4/CSD_Control.c **** cystatus CSD_Start(void)
 111:Generated_Source\PSoC4/CSD_Control.c **** {
 112:Generated_Source\PSoC4/CSD_Control.c ****     cystatus result;
 113:Generated_Source\PSoC4/CSD_Control.c ****     uint8 interruptState;
 114:Generated_Source\PSoC4/CSD_Control.c **** 
 115:Generated_Source\PSoC4/CSD_Control.c ****     /* Initialize CSD modules */
 116:Generated_Source\PSoC4/CSD_Control.c ****     result = CSD_Initialize();
 117:Generated_Source\PSoC4/CSD_Control.c **** 
 118:Generated_Source\PSoC4/CSD_Control.c ****     #if (0u != CSD_SELF_TEST_EN)
 119:Generated_Source\PSoC4/CSD_Control.c ****         if (CYRET_SUCCESS == result)
 120:Generated_Source\PSoC4/CSD_Control.c ****         {
 121:Generated_Source\PSoC4/CSD_Control.c ****             result = CSD_RunSelfTest(CSD_TST_SHORTS);
 122:Generated_Source\PSoC4/CSD_Control.c **** 
 123:Generated_Source\PSoC4/CSD_Control.c ****             /* Verify if test succeed */
 124:Generated_Source\PSoC4/CSD_Control.c ****             if (0u != result)
 125:Generated_Source\PSoC4/CSD_Control.c ****             {
 126:Generated_Source\PSoC4/CSD_Control.c ****                 result = CYRET_UNKNOWN;
 127:Generated_Source\PSoC4/CSD_Control.c ****             }
 128:Generated_Source\PSoC4/CSD_Control.c ****         }
 129:Generated_Source\PSoC4/CSD_Control.c ****     #endif /* #if (0u != CSD_SELF_TEST_EN) */
 130:Generated_Source\PSoC4/CSD_Control.c **** 
 131:Generated_Source\PSoC4/CSD_Control.c ****     #if (CSD_CSD_AUTOTUNE != CSD_CSD_SS_DIS)
 132:Generated_Source\PSoC4/CSD_Control.c ****         if (CYRET_SUCCESS == result)
 133:Generated_Source\PSoC4/CSD_Control.c ****         {
 134:Generated_Source\PSoC4/CSD_Control.c ****             result = CSD_SsAutoTune();
 135:Generated_Source\PSoC4/CSD_Control.c ****         }
 136:Generated_Source\PSoC4/CSD_Control.c ****     #endif /* #if (CSD_CSD_AUTOTUNE != CSD_CSD_SS_DIS) */
 137:Generated_Source\PSoC4/CSD_Control.c **** 
 138:Generated_Source\PSoC4/CSD_Control.c ****     #if ((0u != CSD_CSX_IDAC_AUTOCAL_EN) || \
 139:Generated_Source\PSoC4/CSD_Control.c ****         ((CSD_CSD_AUTOTUNE == CSD_CSD_SS_DIS) && (0u != CSD_CSD_IDAC_AUTOCAL_EN)))
 140:Generated_Source\PSoC4/CSD_Control.c ****         if (CYRET_SUCCESS == result)
 141:Generated_Source\PSoC4/CSD_Control.c ****         {
 142:Generated_Source\PSoC4/CSD_Control.c ****             result = CSD_CalibrateAllWidgets();
 143:Generated_Source\PSoC4/CSD_Control.c ****         }
 144:Generated_Source\PSoC4/CSD_Control.c ****     #endif
 145:Generated_Source\PSoC4/CSD_Control.c **** 
 146:Generated_Source\PSoC4/CSD_Control.c ****     if (CYRET_SUCCESS == result)
ARM GAS  C:\Users\raymond\AppData\Local\Temp\cctozp4c.s 			page 4


 147:Generated_Source\PSoC4/CSD_Control.c ****     {
 148:Generated_Source\PSoC4/CSD_Control.c ****         result = CSD_ScanAllWidgets();
 149:Generated_Source\PSoC4/CSD_Control.c ****     }
 150:Generated_Source\PSoC4/CSD_Control.c **** 
 151:Generated_Source\PSoC4/CSD_Control.c ****     if (CYRET_SUCCESS == result)
 152:Generated_Source\PSoC4/CSD_Control.c ****     {
 153:Generated_Source\PSoC4/CSD_Control.c ****         /* Put CPU into sleep mode while scanning */
 154:Generated_Source\PSoC4/CSD_Control.c ****         interruptState = CyEnterCriticalSection();
 155:Generated_Source\PSoC4/CSD_Control.c ****         while(CSD_NOT_BUSY != CSD_IsBusy())
 156:Generated_Source\PSoC4/CSD_Control.c ****         {
 157:Generated_Source\PSoC4/CSD_Control.c ****             CySysPmSleep();
 158:Generated_Source\PSoC4/CSD_Control.c **** 
 159:Generated_Source\PSoC4/CSD_Control.c ****             /* Exit from the critical section to unblock processing pending interruprs. */
 160:Generated_Source\PSoC4/CSD_Control.c ****             CyExitCriticalSection(interruptState);
 161:Generated_Source\PSoC4/CSD_Control.c ****             interruptState = CyEnterCriticalSection();
 162:Generated_Source\PSoC4/CSD_Control.c ****         }
 163:Generated_Source\PSoC4/CSD_Control.c ****         CyExitCriticalSection(interruptState);
 164:Generated_Source\PSoC4/CSD_Control.c **** 
 165:Generated_Source\PSoC4/CSD_Control.c ****         CSD_FtInitialize();
 166:Generated_Source\PSoC4/CSD_Control.c ****         CSD_InitializeAllBaselines();
 167:Generated_Source\PSoC4/CSD_Control.c ****     }
 168:Generated_Source\PSoC4/CSD_Control.c **** 
 169:Generated_Source\PSoC4/CSD_Control.c ****     #if (0u != CSD_ADC_EN)
 170:Generated_Source\PSoC4/CSD_Control.c ****         CSD_AdcInitialize();
 171:Generated_Source\PSoC4/CSD_Control.c ****     #endif /* (0u != CSD_ADC_EN) */
 172:Generated_Source\PSoC4/CSD_Control.c **** 
 173:Generated_Source\PSoC4/CSD_Control.c ****     return result;
 174:Generated_Source\PSoC4/CSD_Control.c **** }
 175:Generated_Source\PSoC4/CSD_Control.c **** 
 176:Generated_Source\PSoC4/CSD_Control.c **** /*******************************************************************************
 177:Generated_Source\PSoC4/CSD_Control.c **** * Function Name: CSD_Initialize
 178:Generated_Source\PSoC4/CSD_Control.c **** ****************************************************************************//**
 179:Generated_Source\PSoC4/CSD_Control.c **** *
 180:Generated_Source\PSoC4/CSD_Control.c **** * \brief
 181:Generated_Source\PSoC4/CSD_Control.c **** *  This function initializes the CSD component.
 182:Generated_Source\PSoC4/CSD_Control.c **** *
 183:Generated_Source\PSoC4/CSD_Control.c **** * \details
 184:Generated_Source\PSoC4/CSD_Control.c **** *  This API initializes all sub-modules of the CSD component:
 185:Generated_Source\PSoC4/CSD_Control.c **** *   - Data Structure - set the default component parameters defined in the Customizer.
 186:Generated_Source\PSoC4/CSD_Control.c **** *   - Data Processing - resets all widget statuses.
 187:Generated_Source\PSoC4/CSD_Control.c **** *   - Tuner - resets tuning state.
 188:Generated_Source\PSoC4/CSD_Control.c **** *   - Sensing - prepares CSD HW for operation.
 189:Generated_Source\PSoC4/CSD_Control.c **** *
 190:Generated_Source\PSoC4/CSD_Control.c **** *  Note that Data Structure module is initialized only once after the reset or
 191:Generated_Source\PSoC4/CSD_Control.c **** *  CSD_Stop() API is called. The repeated calls of Initialize API
 192:Generated_Source\PSoC4/CSD_Control.c **** *  will not re-initialize Data Structure. This is done to preserve component
 193:Generated_Source\PSoC4/CSD_Control.c **** *  parameters that user may set in runtime.
 194:Generated_Source\PSoC4/CSD_Control.c **** *
 195:Generated_Source\PSoC4/CSD_Control.c **** *  If default component parameters are needed the CSD_DsInitialize()
 196:Generated_Source\PSoC4/CSD_Control.c **** *  API must be called directly from the application code.
 197:Generated_Source\PSoC4/CSD_Control.c **** *
 198:Generated_Source\PSoC4/CSD_Control.c **** * \return
 199:Generated_Source\PSoC4/CSD_Control.c **** *  Return CYRET_SUCCESS if the initialization was successful.
 200:Generated_Source\PSoC4/CSD_Control.c **** *
 201:Generated_Source\PSoC4/CSD_Control.c **** *******************************************************************************/
 202:Generated_Source\PSoC4/CSD_Control.c **** cystatus CSD_Initialize(void)
 203:Generated_Source\PSoC4/CSD_Control.c **** {
ARM GAS  C:\Users\raymond\AppData\Local\Temp\cctozp4c.s 			page 5


  26              		.loc 1 203 0
  27              		.cfi_startproc
  28 0000 08B5     		push	{r3, lr}
  29              		.cfi_def_cfa_offset 8
  30              		.cfi_offset 3, -8
  31              		.cfi_offset 14, -4
 204:Generated_Source\PSoC4/CSD_Control.c ****     cystatus result;
 205:Generated_Source\PSoC4/CSD_Control.c **** 
 206:Generated_Source\PSoC4/CSD_Control.c ****     /* The Data Structure and Tuner are initialized only once */
 207:Generated_Source\PSoC4/CSD_Control.c ****     if (CSD_INIT_NEEDED == CSD_InitVar)
  32              		.loc 1 207 0
  33 0002 084B     		ldr	r3, .L3
  34 0004 1B78     		ldrb	r3, [r3]
  35 0006 002B     		cmp	r3, #0
  36 0008 06D1     		bne	.L2
 208:Generated_Source\PSoC4/CSD_Control.c ****     {
 209:Generated_Source\PSoC4/CSD_Control.c ****         CSD_DsInitialize();
  37              		.loc 1 209 0
  38 000a FFF7FEFF 		bl	CSD_DsInitialize
  39              	.LVL0:
 210:Generated_Source\PSoC4/CSD_Control.c ****         CSD_TuInitialize();
  40              		.loc 1 210 0
  41 000e FFF7FEFF 		bl	CSD_TuInitialize
  42              	.LVL1:
 211:Generated_Source\PSoC4/CSD_Control.c ****         CSD_InitVar = CSD_INIT_DONE;
  43              		.loc 1 211 0
  44 0012 0122     		mov	r2, #1
  45 0014 034B     		ldr	r3, .L3
  46 0016 1A70     		strb	r2, [r3]
  47              	.L2:
 212:Generated_Source\PSoC4/CSD_Control.c ****     }
 213:Generated_Source\PSoC4/CSD_Control.c **** 
 214:Generated_Source\PSoC4/CSD_Control.c ****     CSD_DpInitialize();
  48              		.loc 1 214 0
  49 0018 FFF7FEFF 		bl	CSD_DpInitialize
  50              	.LVL2:
 215:Generated_Source\PSoC4/CSD_Control.c **** 
 216:Generated_Source\PSoC4/CSD_Control.c ****     result = CSD_SsInitialize();
  51              		.loc 1 216 0
  52 001c FFF7FEFF 		bl	CSD_SsInitialize
  53              	.LVL3:
 217:Generated_Source\PSoC4/CSD_Control.c **** 
 218:Generated_Source\PSoC4/CSD_Control.c ****     return result;
 219:Generated_Source\PSoC4/CSD_Control.c **** }
  54              		.loc 1 219 0
  55              		@ sp needed
  56 0020 08BD     		pop	{r3, pc}
  57              	.L4:
  58 0022 C046     		.align	2
  59              	.L3:
  60 0024 00000000 		.word	.LANCHOR0
  61              		.cfi_endproc
  62              	.LFE2:
  63              		.size	CSD_Initialize, .-CSD_Initialize
  64              		.section	.text.CSD_Start,"ax",%progbits
  65              		.align	2
  66              		.global	CSD_Start
ARM GAS  C:\Users\raymond\AppData\Local\Temp\cctozp4c.s 			page 6


  67              		.code	16
  68              		.thumb_func
  69              		.type	CSD_Start, %function
  70              	CSD_Start:
  71              	.LFB1:
 111:Generated_Source\PSoC4/CSD_Control.c ****     cystatus result;
  72              		.loc 1 111 0
  73              		.cfi_startproc
  74 0000 38B5     		push	{r3, r4, r5, lr}
  75              		.cfi_def_cfa_offset 16
  76              		.cfi_offset 3, -16
  77              		.cfi_offset 4, -12
  78              		.cfi_offset 5, -8
  79              		.cfi_offset 14, -4
 116:Generated_Source\PSoC4/CSD_Control.c **** 
  80              		.loc 1 116 0
  81 0002 FFF7FEFF 		bl	CSD_Initialize
  82              	.LVL4:
  83 0006 051E     		sub	r5, r0, #0
  84              	.LVL5:
 140:Generated_Source\PSoC4/CSD_Control.c ****         {
  85              		.loc 1 140 0
  86 0008 02D1     		bne	.L6
 142:Generated_Source\PSoC4/CSD_Control.c ****         }
  87              		.loc 1 142 0
  88 000a FFF7FEFF 		bl	CSD_CalibrateAllWidgets
  89              	.LVL6:
  90 000e 051C     		mov	r5, r0
  91              	.LVL7:
  92              	.L6:
 146:Generated_Source\PSoC4/CSD_Control.c ****     {
  93              		.loc 1 146 0
  94 0010 002D     		cmp	r5, #0
  95 0012 02D1     		bne	.L7
 148:Generated_Source\PSoC4/CSD_Control.c ****     }
  96              		.loc 1 148 0
  97 0014 FFF7FEFF 		bl	CSD_ScanAllWidgets
  98              	.LVL8:
  99 0018 051C     		mov	r5, r0
 100              	.LVL9:
 101              	.L7:
 151:Generated_Source\PSoC4/CSD_Control.c ****     {
 102              		.loc 1 151 0
 103 001a 002D     		cmp	r5, #0
 104 001c 16D1     		bne	.L8
 154:Generated_Source\PSoC4/CSD_Control.c ****         while(CSD_NOT_BUSY != CSD_IsBusy())
 105              		.loc 1 154 0
 106 001e FFF7FEFF 		bl	CyEnterCriticalSection
 107              	.LVL10:
 108 0022 041C     		mov	r4, r0
 109              	.LVL11:
 155:Generated_Source\PSoC4/CSD_Control.c ****         {
 110              		.loc 1 155 0
 111 0024 07E0     		b	.L9
 112              	.LVL12:
 113              	.L10:
 157:Generated_Source\PSoC4/CSD_Control.c **** 
ARM GAS  C:\Users\raymond\AppData\Local\Temp\cctozp4c.s 			page 7


 114              		.loc 1 157 0
 115 0026 FFF7FEFF 		bl	CySysPmSleep
 116              	.LVL13:
 160:Generated_Source\PSoC4/CSD_Control.c ****             interruptState = CyEnterCriticalSection();
 117              		.loc 1 160 0
 118 002a 201C     		mov	r0, r4
 119 002c FFF7FEFF 		bl	CyExitCriticalSection
 120              	.LVL14:
 161:Generated_Source\PSoC4/CSD_Control.c ****         }
 121              		.loc 1 161 0
 122 0030 FFF7FEFF 		bl	CyEnterCriticalSection
 123              	.LVL15:
 124 0034 041C     		mov	r4, r0
 125              	.LVL16:
 126              	.L9:
 155:Generated_Source\PSoC4/CSD_Control.c ****         {
 127              		.loc 1 155 0
 128 0036 FFF7FEFF 		bl	CSD_IsBusy
 129              	.LVL17:
 130 003a 0028     		cmp	r0, #0
 131 003c F3D1     		bne	.L10
 163:Generated_Source\PSoC4/CSD_Control.c **** 
 132              		.loc 1 163 0
 133 003e 201C     		mov	r0, r4
 134 0040 FFF7FEFF 		bl	CyExitCriticalSection
 135              	.LVL18:
 165:Generated_Source\PSoC4/CSD_Control.c ****         CSD_InitializeAllBaselines();
 136              		.loc 1 165 0
 137 0044 FFF7FEFF 		bl	CSD_FtInitialize
 138              	.LVL19:
 166:Generated_Source\PSoC4/CSD_Control.c ****     }
 139              		.loc 1 166 0
 140 0048 FFF7FEFF 		bl	CSD_InitializeAllBaselines
 141              	.LVL20:
 142              	.L8:
 174:Generated_Source\PSoC4/CSD_Control.c **** 
 143              		.loc 1 174 0
 144 004c 281C     		mov	r0, r5
 145              		@ sp needed
 146              	.LVL21:
 147 004e 38BD     		pop	{r3, r4, r5, pc}
 148              		.cfi_endproc
 149              	.LFE1:
 150              		.size	CSD_Start, .-CSD_Start
 151              		.section	.text.CSD_Stop,"ax",%progbits
 152              		.align	2
 153              		.global	CSD_Stop
 154              		.code	16
 155              		.thumb_func
 156              		.type	CSD_Stop, %function
 157              	CSD_Stop:
 158              	.LFB3:
 220:Generated_Source\PSoC4/CSD_Control.c **** 
 221:Generated_Source\PSoC4/CSD_Control.c **** /*******************************************************************************
 222:Generated_Source\PSoC4/CSD_Control.c **** * Function Name: CSD_Stop
 223:Generated_Source\PSoC4/CSD_Control.c **** ****************************************************************************//**
 224:Generated_Source\PSoC4/CSD_Control.c **** *
ARM GAS  C:\Users\raymond\AppData\Local\Temp\cctozp4c.s 			page 8


 225:Generated_Source\PSoC4/CSD_Control.c **** * \brief
 226:Generated_Source\PSoC4/CSD_Control.c **** *  Stops the component operation.
 227:Generated_Source\PSoC4/CSD_Control.c **** *
 228:Generated_Source\PSoC4/CSD_Control.c **** * \details
 229:Generated_Source\PSoC4/CSD_Control.c **** *  This function stops the component operation, no sensor scanning can be 
 230:Generated_Source\PSoC4/CSD_Control.c **** *  executed when the component is stopped. Once stopped, the hardware block may 
 231:Generated_Source\PSoC4/CSD_Control.c **** *  be reconfigured by the application program for any other special usage. The 
 232:Generated_Source\PSoC4/CSD_Control.c **** *  component operation can be resumed by calling the CSD_Resume() 
 233:Generated_Source\PSoC4/CSD_Control.c **** *  function or the component can be reset by calling the 
 234:Generated_Source\PSoC4/CSD_Control.c **** *  CSD_Start() function.
 235:Generated_Source\PSoC4/CSD_Control.c **** *  
 236:Generated_Source\PSoC4/CSD_Control.c **** *  This function should be called when no scanning is in progress. 
 237:Generated_Source\PSoC4/CSD_Control.c **** *  I.e. CSD_IsBusy() returns a non-busy status.
 238:Generated_Source\PSoC4/CSD_Control.c **** *
 239:Generated_Source\PSoC4/CSD_Control.c **** * \return
 240:Generated_Source\PSoC4/CSD_Control.c **** *  Returns the status of the stop process. If CYRET_SUCCESS is not received, 
 241:Generated_Source\PSoC4/CSD_Control.c **** *  the stop process fails and retries may be required.
 242:Generated_Source\PSoC4/CSD_Control.c **** *
 243:Generated_Source\PSoC4/CSD_Control.c **** *******************************************************************************/
 244:Generated_Source\PSoC4/CSD_Control.c **** cystatus CSD_Stop(void)
 245:Generated_Source\PSoC4/CSD_Control.c **** {
 159              		.loc 1 245 0
 160              		.cfi_startproc
 161              	.LVL22:
 246:Generated_Source\PSoC4/CSD_Control.c ****     cystatus result = CYRET_SUCCESS;
 247:Generated_Source\PSoC4/CSD_Control.c **** 
 248:Generated_Source\PSoC4/CSD_Control.c ****     #if (CSD_ENABLE == CSD_ADC_EN)
 249:Generated_Source\PSoC4/CSD_Control.c ****         /* Release CSD resources */
 250:Generated_Source\PSoC4/CSD_Control.c ****         result = CSD_SsReleaseResources();
 251:Generated_Source\PSoC4/CSD_Control.c **** 
 252:Generated_Source\PSoC4/CSD_Control.c ****         /* Release ADC resources */
 253:Generated_Source\PSoC4/CSD_Control.c ****         CSD_AdcStop();
 254:Generated_Source\PSoC4/CSD_Control.c ****     #endif /* (CSD_ENABLE == CSD_ADC_EN) */
 255:Generated_Source\PSoC4/CSD_Control.c **** 
 256:Generated_Source\PSoC4/CSD_Control.c ****     CSD_InitVar = CSD_INIT_NEEDED;
 162              		.loc 1 256 0
 163 0000 0022     		mov	r2, #0
 164 0002 024B     		ldr	r3, .L12
 165 0004 1A70     		strb	r2, [r3]
 257:Generated_Source\PSoC4/CSD_Control.c **** 
 258:Generated_Source\PSoC4/CSD_Control.c ****     return result;
 259:Generated_Source\PSoC4/CSD_Control.c **** }
 166              		.loc 1 259 0
 167 0006 0020     		mov	r0, #0
 168              		@ sp needed
 169 0008 7047     		bx	lr
 170              	.L13:
 171 000a C046     		.align	2
 172              	.L12:
 173 000c 00000000 		.word	.LANCHOR0
 174              		.cfi_endproc
 175              	.LFE3:
 176              		.size	CSD_Stop, .-CSD_Stop
 177              		.section	.text.CSD_Resume,"ax",%progbits
 178              		.align	2
 179              		.global	CSD_Resume
 180              		.code	16
ARM GAS  C:\Users\raymond\AppData\Local\Temp\cctozp4c.s 			page 9


 181              		.thumb_func
 182              		.type	CSD_Resume, %function
 183              	CSD_Resume:
 184              	.LFB4:
 260:Generated_Source\PSoC4/CSD_Control.c **** 
 261:Generated_Source\PSoC4/CSD_Control.c **** /*******************************************************************************
 262:Generated_Source\PSoC4/CSD_Control.c **** * Function Name: CSD_Resume
 263:Generated_Source\PSoC4/CSD_Control.c **** ****************************************************************************//**
 264:Generated_Source\PSoC4/CSD_Control.c **** *
 265:Generated_Source\PSoC4/CSD_Control.c **** * \brief
 266:Generated_Source\PSoC4/CSD_Control.c **** *  Resumes the component operation if CSD_Stop() function was 
 267:Generated_Source\PSoC4/CSD_Control.c **** *  called previously.
 268:Generated_Source\PSoC4/CSD_Control.c **** *
 269:Generated_Source\PSoC4/CSD_Control.c **** * \details
 270:Generated_Source\PSoC4/CSD_Control.c **** *  This function resumes the component operation if the operation is stopped
 271:Generated_Source\PSoC4/CSD_Control.c **** *  previously by the CSD_Stop() function. The following tasks are 
 272:Generated_Source\PSoC4/CSD_Control.c **** *  executed as part of the operation resume process:
 273:Generated_Source\PSoC4/CSD_Control.c **** *    1. Reset all Widgets/Sensors status.
 274:Generated_Source\PSoC4/CSD_Control.c **** *    2. Configure the hardware to perform capacitive sensing.
 275:Generated_Source\PSoC4/CSD_Control.c **** *
 276:Generated_Source\PSoC4/CSD_Control.c **** * \return
 277:Generated_Source\PSoC4/CSD_Control.c **** *  Returns the status of the resume process. If CYRET_SUCCESS is not received,
 278:Generated_Source\PSoC4/CSD_Control.c **** *  the resume process fails and retries may be required.
 279:Generated_Source\PSoC4/CSD_Control.c **** *
 280:Generated_Source\PSoC4/CSD_Control.c **** *******************************************************************************/
 281:Generated_Source\PSoC4/CSD_Control.c **** cystatus CSD_Resume(void)
 282:Generated_Source\PSoC4/CSD_Control.c **** {
 185              		.loc 1 282 0
 186              		.cfi_startproc
 187 0000 08B5     		push	{r3, lr}
 188              		.cfi_def_cfa_offset 8
 189              		.cfi_offset 3, -8
 190              		.cfi_offset 14, -4
 283:Generated_Source\PSoC4/CSD_Control.c ****     cystatus result;
 284:Generated_Source\PSoC4/CSD_Control.c **** 
 285:Generated_Source\PSoC4/CSD_Control.c ****     CSD_DpInitialize();
 191              		.loc 1 285 0
 192 0002 FFF7FEFF 		bl	CSD_DpInitialize
 193              	.LVL23:
 286:Generated_Source\PSoC4/CSD_Control.c ****     CSD_TuInitialize();
 194              		.loc 1 286 0
 195 0006 FFF7FEFF 		bl	CSD_TuInitialize
 196              	.LVL24:
 287:Generated_Source\PSoC4/CSD_Control.c **** 
 288:Generated_Source\PSoC4/CSD_Control.c ****     result = CSD_SsInitialize();
 197              		.loc 1 288 0
 198 000a FFF7FEFF 		bl	CSD_SsInitialize
 199              	.LVL25:
 289:Generated_Source\PSoC4/CSD_Control.c **** 
 290:Generated_Source\PSoC4/CSD_Control.c ****     CSD_InitVar = CSD_INIT_DONE;
 200              		.loc 1 290 0
 201 000e 0122     		mov	r2, #1
 202 0010 014B     		ldr	r3, .L15
 203 0012 1A70     		strb	r2, [r3]
 291:Generated_Source\PSoC4/CSD_Control.c **** 
 292:Generated_Source\PSoC4/CSD_Control.c ****     return result;
 293:Generated_Source\PSoC4/CSD_Control.c **** }
ARM GAS  C:\Users\raymond\AppData\Local\Temp\cctozp4c.s 			page 10


 204              		.loc 1 293 0
 205              		@ sp needed
 206 0014 08BD     		pop	{r3, pc}
 207              	.L16:
 208 0016 C046     		.align	2
 209              	.L15:
 210 0018 00000000 		.word	.LANCHOR0
 211              		.cfi_endproc
 212              	.LFE4:
 213              		.size	CSD_Resume, .-CSD_Resume
 214              		.section	.text.CSD_ProcessAllWidgets,"ax",%progbits
 215              		.align	2
 216              		.global	CSD_ProcessAllWidgets
 217              		.code	16
 218              		.thumb_func
 219              		.type	CSD_ProcessAllWidgets, %function
 220              	CSD_ProcessAllWidgets:
 221              	.LFB5:
 294:Generated_Source\PSoC4/CSD_Control.c **** 
 295:Generated_Source\PSoC4/CSD_Control.c **** 
 296:Generated_Source\PSoC4/CSD_Control.c **** /*******************************************************************************
 297:Generated_Source\PSoC4/CSD_Control.c **** * Function Name: CSD_ProcessAllWidgets
 298:Generated_Source\PSoC4/CSD_Control.c **** ****************************************************************************//**
 299:Generated_Source\PSoC4/CSD_Control.c **** *
 300:Generated_Source\PSoC4/CSD_Control.c **** * \brief
 301:Generated_Source\PSoC4/CSD_Control.c **** *  Performs full data processing of all enabled widgets.
 302:Generated_Source\PSoC4/CSD_Control.c **** *
 303:Generated_Source\PSoC4/CSD_Control.c **** * \details
 304:Generated_Source\PSoC4/CSD_Control.c **** *  This function performs all data processes for all enabled widgets in the 
 305:Generated_Source\PSoC4/CSD_Control.c **** *  component. The following tasks are executed as part of processing all the 
 306:Generated_Source\PSoC4/CSD_Control.c **** *  widgets:
 307:Generated_Source\PSoC4/CSD_Control.c **** *    1. Apply raw0count filters to raw counts, if they are enabled in the 
 308:Generated_Source\PSoC4/CSD_Control.c **** *       customizer.
 309:Generated_Source\PSoC4/CSD_Control.c **** *    2. Update thresholds if the SmartSense uFll Auto-Tuning is enabled in
 310:Generated_Source\PSoC4/CSD_Control.c **** *       the customizer.
 311:Generated_Source\PSoC4/CSD_Control.c **** *    3. Update the Baselines and Difference counts for all sensors.
 312:Generated_Source\PSoC4/CSD_Control.c **** *    4. Update the sensor and widget status (on/off), update centroid for 
 313:Generated_Source\PSoC4/CSD_Control.c **** *       sliders and X/Y position for touchpads.
 314:Generated_Source\PSoC4/CSD_Control.c **** *  
 315:Generated_Source\PSoC4/CSD_Control.c **** *  Disabled widgets are not processed. To disable/enable a widget, set 
 316:Generated_Source\PSoC4/CSD_Control.c **** *  appropriate values in the 
 317:Generated_Source\PSoC4/CSD_Control.c **** *  CSD_WDGT_ENABLE<RegisterNumber>_PARAM_ID register using the
 318:Generated_Source\PSoC4/CSD_Control.c **** *  CSD_SetParam() function.
 319:Generated_Source\PSoC4/CSD_Control.c **** *  This function should be called only after all the sensors in the component
 320:Generated_Source\PSoC4/CSD_Control.c **** *  are scanned. Calling this function multiple times without sensor scanning
 321:Generated_Source\PSoC4/CSD_Control.c **** *  causes unexpected behavior.
 322:Generated_Source\PSoC4/CSD_Control.c **** *
 323:Generated_Source\PSoC4/CSD_Control.c **** * \return
 324:Generated_Source\PSoC4/CSD_Control.c **** *  Returns the status of the process operation. If CYRET_SUCCESS is not 
 325:Generated_Source\PSoC4/CSD_Control.c **** *  received, the process failed.
 326:Generated_Source\PSoC4/CSD_Control.c **** *
 327:Generated_Source\PSoC4/CSD_Control.c **** *******************************************************************************/
 328:Generated_Source\PSoC4/CSD_Control.c **** cystatus CSD_ProcessAllWidgets(void)
 329:Generated_Source\PSoC4/CSD_Control.c **** {
 222              		.loc 1 329 0
 223              		.cfi_startproc
 224 0000 38B5     		push	{r3, r4, r5, lr}
ARM GAS  C:\Users\raymond\AppData\Local\Temp\cctozp4c.s 			page 11


 225              		.cfi_def_cfa_offset 16
 226              		.cfi_offset 3, -16
 227              		.cfi_offset 4, -12
 228              		.cfi_offset 5, -8
 229              		.cfi_offset 14, -4
 230              	.LVL26:
 330:Generated_Source\PSoC4/CSD_Control.c ****     uint32 wdgtId;
 331:Generated_Source\PSoC4/CSD_Control.c ****     cystatus result = CYRET_SUCCESS;
 332:Generated_Source\PSoC4/CSD_Control.c ****     CSD_FLASH_WD_STRUCT const *ptrFlashWdgt;
 333:Generated_Source\PSoC4/CSD_Control.c **** 
 334:Generated_Source\PSoC4/CSD_Control.c ****     ptrFlashWdgt = CSD_dsFlash.wdgtArray;
 231              		.loc 1 334 0
 232 0002 0E4D     		ldr	r5, .L21
 335:Generated_Source\PSoC4/CSD_Control.c **** 
 336:Generated_Source\PSoC4/CSD_Control.c ****     for (wdgtId = 0u; wdgtId < CSD_TOTAL_WIDGETS; wdgtId++)
 233              		.loc 1 336 0
 234 0004 0024     		mov	r4, #0
 235 0006 14E0     		b	.L18
 236              	.LVL27:
 237              	.L20:
 337:Generated_Source\PSoC4/CSD_Control.c ****     {
 338:Generated_Source\PSoC4/CSD_Control.c ****         if (0u != CSD_GET_WIDGET_EN_STATUS(wdgtId))
 238              		.loc 1 338 0
 239 0008 6309     		lsr	r3, r4, #5
 240 000a 0233     		add	r3, r3, #2
 241 000c 9B00     		lsl	r3, r3, #2
 242 000e 0C4A     		ldr	r2, .L21+4
 243 0010 D318     		add	r3, r2, r3
 244 0012 5A68     		ldr	r2, [r3, #4]
 245 0014 1F23     		mov	r3, #31
 246 0016 2340     		and	r3, r4
 247 0018 DA40     		lsr	r2, r2, r3
 248 001a 131C     		mov	r3, r2
 249 001c DB07     		lsl	r3, r3, #31
 250 001e 06D5     		bpl	.L19
 339:Generated_Source\PSoC4/CSD_Control.c ****         {
 340:Generated_Source\PSoC4/CSD_Control.c ****             switch(CSD_GET_SENSE_METHOD(ptrFlashWdgt))
 341:Generated_Source\PSoC4/CSD_Control.c ****             {
 342:Generated_Source\PSoC4/CSD_Control.c ****             #if (0u != CSD_TOTAL_CSD_WIDGETS)
 343:Generated_Source\PSoC4/CSD_Control.c ****                 case CSD_SENSE_METHOD_CSD_E:
 344:Generated_Source\PSoC4/CSD_Control.c ****                     CSD_DpProcessCsdWidgetRawCounts(ptrFlashWdgt);
 251              		.loc 1 344 0
 252 0020 281C     		mov	r0, r5
 253 0022 FFF7FEFF 		bl	CSD_DpProcessCsdWidgetRawCounts
 254              	.LVL28:
 345:Generated_Source\PSoC4/CSD_Control.c ****                     CSD_DpProcessCsdWidgetStatus(wdgtId, ptrFlashWdgt);
 255              		.loc 1 345 0
 256 0026 201C     		mov	r0, r4
 257 0028 291C     		mov	r1, r5
 258 002a FFF7FEFF 		bl	CSD_DpProcessCsdWidgetStatus
 259              	.LVL29:
 260              	.L19:
 346:Generated_Source\PSoC4/CSD_Control.c ****                     break;
 347:Generated_Source\PSoC4/CSD_Control.c ****             #endif /* #if (0u != CSD_TOTAL_CSD_WIDGETS) */
 348:Generated_Source\PSoC4/CSD_Control.c **** 
 349:Generated_Source\PSoC4/CSD_Control.c ****             #if (0u != CSD_TOTAL_CSX_WIDGETS)
 350:Generated_Source\PSoC4/CSD_Control.c ****                 case CSD_SENSE_METHOD_CSX_E:
ARM GAS  C:\Users\raymond\AppData\Local\Temp\cctozp4c.s 			page 12


 351:Generated_Source\PSoC4/CSD_Control.c ****                     CSD_DpProcessCsxWidgetRawCounts(ptrFlashWdgt);
 352:Generated_Source\PSoC4/CSD_Control.c ****                     CSD_DpProcessCsxWidgetStatus(wdgtId, ptrFlashWdgt);
 353:Generated_Source\PSoC4/CSD_Control.c ****                     break;
 354:Generated_Source\PSoC4/CSD_Control.c ****             #endif /* #if (0u != CSD_TOTAL_CSX_WIDGETS) */
 355:Generated_Source\PSoC4/CSD_Control.c **** 
 356:Generated_Source\PSoC4/CSD_Control.c ****             default:
 357:Generated_Source\PSoC4/CSD_Control.c ****                 CYASSERT(0u);
 358:Generated_Source\PSoC4/CSD_Control.c ****                 break;
 359:Generated_Source\PSoC4/CSD_Control.c ****             }
 360:Generated_Source\PSoC4/CSD_Control.c ****         }
 361:Generated_Source\PSoC4/CSD_Control.c **** 
 362:Generated_Source\PSoC4/CSD_Control.c ****         ptrFlashWdgt++;
 261              		.loc 1 362 0 discriminator 2
 262 002e 1C35     		add	r5, r5, #28
 263              	.LVL30:
 336:Generated_Source\PSoC4/CSD_Control.c ****     {
 264              		.loc 1 336 0 discriminator 2
 265 0030 0134     		add	r4, r4, #1
 266              	.LVL31:
 267              	.L18:
 336:Generated_Source\PSoC4/CSD_Control.c ****     {
 268              		.loc 1 336 0 is_stmt 0 discriminator 1
 269 0032 002C     		cmp	r4, #0
 270 0034 E8D0     		beq	.L20
 363:Generated_Source\PSoC4/CSD_Control.c ****     }
 364:Generated_Source\PSoC4/CSD_Control.c **** 
 365:Generated_Source\PSoC4/CSD_Control.c ****     return result;
 366:Generated_Source\PSoC4/CSD_Control.c **** }
 271              		.loc 1 366 0 is_stmt 1
 272 0036 0020     		mov	r0, #0
 273              		@ sp needed
 274              	.LVL32:
 275              	.LVL33:
 276 0038 38BD     		pop	{r3, r4, r5, pc}
 277              	.L22:
 278 003a C046     		.align	2
 279              	.L21:
 280 003c 00000000 		.word	CSD_dsFlash
 281 0040 00000000 		.word	CSD_dsRam
 282              		.cfi_endproc
 283              	.LFE5:
 284              		.size	CSD_ProcessAllWidgets, .-CSD_ProcessAllWidgets
 285              		.section	.text.CSD_ProcessWidget,"ax",%progbits
 286              		.align	2
 287              		.global	CSD_ProcessWidget
 288              		.code	16
 289              		.thumb_func
 290              		.type	CSD_ProcessWidget, %function
 291              	CSD_ProcessWidget:
 292              	.LFB6:
 367:Generated_Source\PSoC4/CSD_Control.c **** 
 368:Generated_Source\PSoC4/CSD_Control.c **** 
 369:Generated_Source\PSoC4/CSD_Control.c **** /*******************************************************************************
 370:Generated_Source\PSoC4/CSD_Control.c **** * Function Name: CSD_ProcessWidget
 371:Generated_Source\PSoC4/CSD_Control.c **** ****************************************************************************//**
 372:Generated_Source\PSoC4/CSD_Control.c **** *
 373:Generated_Source\PSoC4/CSD_Control.c **** * \brief
ARM GAS  C:\Users\raymond\AppData\Local\Temp\cctozp4c.s 			page 13


 374:Generated_Source\PSoC4/CSD_Control.c **** *  Performs full data processing of the specified widget if it is enabled.
 375:Generated_Source\PSoC4/CSD_Control.c **** *
 376:Generated_Source\PSoC4/CSD_Control.c **** * \details
 377:Generated_Source\PSoC4/CSD_Control.c **** *  This function performs exactly the same tasks as 
 378:Generated_Source\PSoC4/CSD_Control.c **** *  CSD_ProcessAllWidgets(), but only for a specified widget. This 
 379:Generated_Source\PSoC4/CSD_Control.c **** *  function can be used along with the CSD_SetupWidget() and 
 380:Generated_Source\PSoC4/CSD_Control.c **** *  CSD_Scan() functions to scan and process data for a specific
 381:Generated_Source\PSoC4/CSD_Control.c **** *  widget. This function should be called only after all the sensors in the 
 382:Generated_Source\PSoC4/CSD_Control.c **** *  widgets are scanned. A disabled widget is not processed by this function.
 383:Generated_Source\PSoC4/CSD_Control.c **** *  
 384:Generated_Source\PSoC4/CSD_Control.c **** *  The pipeline scan method (i.e. during scanning of a widget perform processing
 385:Generated_Source\PSoC4/CSD_Control.c **** *  of the previously scanned widget) can be implemented using this function and
 386:Generated_Source\PSoC4/CSD_Control.c **** *  it may reduce the total scan/process time, increase the refresh rate and 
 387:Generated_Source\PSoC4/CSD_Control.c **** *  decrease the power consumption.
 388:Generated_Source\PSoC4/CSD_Control.c **** *
 389:Generated_Source\PSoC4/CSD_Control.c **** * \param widgetId 
 390:Generated_Source\PSoC4/CSD_Control.c **** *  Specify the ID number of the widget to be processed. 
 391:Generated_Source\PSoC4/CSD_Control.c **** *  A macro for the widget ID can be found in the 
 392:Generated_Source\PSoC4/CSD_Control.c **** *  CSD_Configuration.h file defined as
 393:Generated_Source\PSoC4/CSD_Control.c **** *  CSD_<WidgetName>_WDGT_ID
 394:Generated_Source\PSoC4/CSD_Control.c **** *
 395:Generated_Source\PSoC4/CSD_Control.c **** * \return
 396:Generated_Source\PSoC4/CSD_Control.c **** *  Returns the status of the widget processing:
 397:Generated_Source\PSoC4/CSD_Control.c **** *    - CYRET_SUCCESS if operation is successfully completed.
 398:Generated_Source\PSoC4/CSD_Control.c **** *    - CYRET_BAD_PARAM if the input parameter is invalid.
 399:Generated_Source\PSoC4/CSD_Control.c **** *    - CYRET_INVALID_STATE if the specified widget is disabled.
 400:Generated_Source\PSoC4/CSD_Control.c **** *
 401:Generated_Source\PSoC4/CSD_Control.c **** *******************************************************************************/
 402:Generated_Source\PSoC4/CSD_Control.c **** cystatus CSD_ProcessWidget(uint32 widgetId)
 403:Generated_Source\PSoC4/CSD_Control.c **** {
 293              		.loc 1 403 0
 294              		.cfi_startproc
 295              	.LVL34:
 296 0000 70B5     		push	{r4, r5, r6, lr}
 297              		.cfi_def_cfa_offset 16
 298              		.cfi_offset 4, -16
 299              		.cfi_offset 5, -12
 300              		.cfi_offset 6, -8
 301              		.cfi_offset 14, -4
 302              	.LVL35:
 404:Generated_Source\PSoC4/CSD_Control.c ****     cystatus result = CYRET_SUCCESS;
 405:Generated_Source\PSoC4/CSD_Control.c ****     CSD_FLASH_WD_STRUCT const *ptrFlashWdgt;
 406:Generated_Source\PSoC4/CSD_Control.c **** 
 407:Generated_Source\PSoC4/CSD_Control.c ****     if (widgetId >= CSD_TOTAL_WIDGETS)
 303              		.loc 1 407 0
 304 0002 0028     		cmp	r0, #0
 305 0004 01D1     		bne	.L27
 404:Generated_Source\PSoC4/CSD_Control.c ****     cystatus result = CYRET_SUCCESS;
 306              		.loc 1 404 0
 307 0006 0025     		mov	r5, #0
 308 0008 00E0     		b	.L24
 309              	.L27:
 408:Generated_Source\PSoC4/CSD_Control.c ****     {
 409:Generated_Source\PSoC4/CSD_Control.c ****         result = CYRET_BAD_PARAM;
 310              		.loc 1 409 0
 311 000a 0125     		mov	r5, #1
 312              	.L24:
ARM GAS  C:\Users\raymond\AppData\Local\Temp\cctozp4c.s 			page 14


 313              	.LVL36:
 410:Generated_Source\PSoC4/CSD_Control.c ****     }
 411:Generated_Source\PSoC4/CSD_Control.c **** 
 412:Generated_Source\PSoC4/CSD_Control.c ****     if ((CYRET_SUCCESS == result) && (0u == CSD_GET_WIDGET_EN_STATUS(widgetId)))
 314              		.loc 1 412 0
 315 000c 002D     		cmp	r5, #0
 316 000e 0CD1     		bne	.L25
 317              		.loc 1 412 0 is_stmt 0 discriminator 1
 318 0010 4309     		lsr	r3, r0, #5
 319 0012 0233     		add	r3, r3, #2
 320 0014 9B00     		lsl	r3, r3, #2
 321 0016 0D4A     		ldr	r2, .L29
 322 0018 D318     		add	r3, r2, r3
 323 001a 5A68     		ldr	r2, [r3, #4]
 324 001c 1F23     		mov	r3, #31
 325 001e 0340     		and	r3, r0
 326 0020 DA40     		lsr	r2, r2, r3
 327 0022 131C     		mov	r3, r2
 328 0024 DB07     		lsl	r3, r3, #31
 329 0026 00D4     		bmi	.L25
 413:Generated_Source\PSoC4/CSD_Control.c ****     {
 414:Generated_Source\PSoC4/CSD_Control.c ****         result = CYRET_INVALID_STATE;
 330              		.loc 1 414 0 is_stmt 1
 331 0028 1135     		add	r5, r5, #17
 332              	.LVL37:
 333              	.L25:
 415:Generated_Source\PSoC4/CSD_Control.c ****     }
 416:Generated_Source\PSoC4/CSD_Control.c **** 
 417:Generated_Source\PSoC4/CSD_Control.c ****     if (CYRET_SUCCESS == result)
 334              		.loc 1 417 0
 335 002a 002D     		cmp	r5, #0
 336 002c 0CD1     		bne	.L26
 337 002e 041C     		mov	r4, r0
 418:Generated_Source\PSoC4/CSD_Control.c ****     {
 419:Generated_Source\PSoC4/CSD_Control.c ****         ptrFlashWdgt = &CSD_dsFlash.wdgtArray[widgetId];
 338              		.loc 1 419 0
 339 0030 C300     		lsl	r3, r0, #3
 340 0032 1B1A     		sub	r3, r3, r0
 341 0034 9B00     		lsl	r3, r3, #2
 342 0036 064E     		ldr	r6, .L29+4
 343 0038 9E19     		add	r6, r3, r6
 344              	.LVL38:
 420:Generated_Source\PSoC4/CSD_Control.c **** 
 421:Generated_Source\PSoC4/CSD_Control.c ****         switch(CSD_GET_SENSE_METHOD(ptrFlashWdgt))
 422:Generated_Source\PSoC4/CSD_Control.c ****         {
 423:Generated_Source\PSoC4/CSD_Control.c ****         #if (0u != CSD_TOTAL_CSD_WIDGETS)
 424:Generated_Source\PSoC4/CSD_Control.c ****             case CSD_SENSE_METHOD_CSD_E:
 425:Generated_Source\PSoC4/CSD_Control.c ****                 CSD_DpProcessCsdWidgetRawCounts(ptrFlashWdgt);
 345              		.loc 1 425 0
 346 003a 301C     		mov	r0, r6
 347              	.LVL39:
 348 003c FFF7FEFF 		bl	CSD_DpProcessCsdWidgetRawCounts
 349              	.LVL40:
 426:Generated_Source\PSoC4/CSD_Control.c ****                 CSD_DpProcessCsdWidgetStatus(widgetId, ptrFlashWdgt);
 350              		.loc 1 426 0
 351 0040 201C     		mov	r0, r4
 352 0042 311C     		mov	r1, r6
ARM GAS  C:\Users\raymond\AppData\Local\Temp\cctozp4c.s 			page 15


 353 0044 FFF7FEFF 		bl	CSD_DpProcessCsdWidgetStatus
 354              	.LVL41:
 355              	.L26:
 427:Generated_Source\PSoC4/CSD_Control.c ****                 break;
 428:Generated_Source\PSoC4/CSD_Control.c ****         #endif /* #if (0u != CSD_TOTAL_CSD_WIDGETS) */
 429:Generated_Source\PSoC4/CSD_Control.c **** 
 430:Generated_Source\PSoC4/CSD_Control.c ****         #if (0u != CSD_TOTAL_CSX_WIDGETS)
 431:Generated_Source\PSoC4/CSD_Control.c ****             case CSD_SENSE_METHOD_CSX_E:
 432:Generated_Source\PSoC4/CSD_Control.c ****                 CSD_DpProcessCsxWidgetRawCounts(ptrFlashWdgt);
 433:Generated_Source\PSoC4/CSD_Control.c ****                 CSD_DpProcessCsxWidgetStatus(widgetId, ptrFlashWdgt);
 434:Generated_Source\PSoC4/CSD_Control.c ****                 break;
 435:Generated_Source\PSoC4/CSD_Control.c ****         #endif /* #if (0u != CSD_TOTAL_CSX_WIDGETS) */
 436:Generated_Source\PSoC4/CSD_Control.c **** 
 437:Generated_Source\PSoC4/CSD_Control.c ****         default:
 438:Generated_Source\PSoC4/CSD_Control.c ****             CYASSERT(0u);
 439:Generated_Source\PSoC4/CSD_Control.c ****             break;
 440:Generated_Source\PSoC4/CSD_Control.c ****         }
 441:Generated_Source\PSoC4/CSD_Control.c ****     }
 442:Generated_Source\PSoC4/CSD_Control.c **** 
 443:Generated_Source\PSoC4/CSD_Control.c ****     return result;
 444:Generated_Source\PSoC4/CSD_Control.c **** }
 356              		.loc 1 444 0
 357 0048 281C     		mov	r0, r5
 358              		@ sp needed
 359              	.LVL42:
 360 004a 70BD     		pop	{r4, r5, r6, pc}
 361              	.L30:
 362              		.align	2
 363              	.L29:
 364 004c 00000000 		.word	CSD_dsRam
 365 0050 00000000 		.word	CSD_dsFlash
 366              		.cfi_endproc
 367              	.LFE6:
 368              		.size	CSD_ProcessWidget, .-CSD_ProcessWidget
 369              		.section	.text.CSD_ProcessWidgetExt,"ax",%progbits
 370              		.align	2
 371              		.global	CSD_ProcessWidgetExt
 372              		.code	16
 373              		.thumb_func
 374              		.type	CSD_ProcessWidgetExt, %function
 375              	CSD_ProcessWidgetExt:
 376              	.LFB7:
 445:Generated_Source\PSoC4/CSD_Control.c **** 
 446:Generated_Source\PSoC4/CSD_Control.c **** 
 447:Generated_Source\PSoC4/CSD_Control.c **** /*******************************************************************************
 448:Generated_Source\PSoC4/CSD_Control.c **** * Function Name: CSD_ProcessWidgetExt
 449:Generated_Source\PSoC4/CSD_Control.c **** ****************************************************************************//**
 450:Generated_Source\PSoC4/CSD_Control.c **** *
 451:Generated_Source\PSoC4/CSD_Control.c **** * \brief
 452:Generated_Source\PSoC4/CSD_Control.c **** *  Performs customized data processing on the selected widget.
 453:Generated_Source\PSoC4/CSD_Control.c **** *
 454:Generated_Source\PSoC4/CSD_Control.c **** * \details
 455:Generated_Source\PSoC4/CSD_Control.c **** *  This function performs data processes for the specified widget specified by 
 456:Generated_Source\PSoC4/CSD_Control.c **** *  the mode parameter. The execution order of the requested operations is from 
 457:Generated_Source\PSoC4/CSD_Control.c **** *  LSB to MSB of the mode parameter. If a different order is needed, this API 
 458:Generated_Source\PSoC4/CSD_Control.c **** *  can be called multiple times with the required mode parameter. 
 459:Generated_Source\PSoC4/CSD_Control.c **** *  
ARM GAS  C:\Users\raymond\AppData\Local\Temp\cctozp4c.s 			page 16


 460:Generated_Source\PSoC4/CSD_Control.c **** *  This function can be used with any of the available scan functions. This 
 461:Generated_Source\PSoC4/CSD_Control.c **** *  function should be called only after all sensors in the specified widget are
 462:Generated_Source\PSoC4/CSD_Control.c **** *  scanned. Calling this function multiple times with the same mode without 
 463:Generated_Source\PSoC4/CSD_Control.c **** *  sensor scanning causes unexpected behavior. This function ignores the value 
 464:Generated_Source\PSoC4/CSD_Control.c **** *  of the wdgtEnable register. 
 465:Generated_Source\PSoC4/CSD_Control.c **** *  
 466:Generated_Source\PSoC4/CSD_Control.c **** *  The CSD_PROCESS_CALC_NOISE and 
 467:Generated_Source\PSoC4/CSD_Control.c **** *  CSD_PROCESS_THRESHOLDS flags are supported by the CSD sensing
 468:Generated_Source\PSoC4/CSD_Control.c **** *  method only when the auto-tuning mode is enabled.
 469:Generated_Source\PSoC4/CSD_Control.c **** *  
 470:Generated_Source\PSoC4/CSD_Control.c **** *  The pipeline scan method (i.e. during scanning of a widget perform processing
 471:Generated_Source\PSoC4/CSD_Control.c **** *  of a previously scanned widget) can be implemented using this function and it
 472:Generated_Source\PSoC4/CSD_Control.c **** *  may reduce the total scan/process time, increase the refresh rate and 
 473:Generated_Source\PSoC4/CSD_Control.c **** *  decrease the power consumption.
 474:Generated_Source\PSoC4/CSD_Control.c **** *
 475:Generated_Source\PSoC4/CSD_Control.c **** * \param widgetId 
 476:Generated_Source\PSoC4/CSD_Control.c **** *  Specify the ID number of the widget to be processed. 
 477:Generated_Source\PSoC4/CSD_Control.c **** *  A macro for the widget ID can be found in CSD_Configuration.h 
 478:Generated_Source\PSoC4/CSD_Control.c **** *  file defined as CSD_<WidgetName>_WDGT_ID.
 479:Generated_Source\PSoC4/CSD_Control.c **** 
 480:Generated_Source\PSoC4/CSD_Control.c **** * \param mode 
 481:Generated_Source\PSoC4/CSD_Control.c **** *  Specify the type of widget processing that needs to be executed for the 
 482:Generated_Source\PSoC4/CSD_Control.c **** *  specified widget:
 483:Generated_Source\PSoC4/CSD_Control.c **** *    1.	Bits [31..6] - Reserved
 484:Generated_Source\PSoC4/CSD_Control.c **** *    2.	Bits [5..0] - CSD_PROCESS_ALL - Execute all tasks
 485:Generated_Source\PSoC4/CSD_Control.c **** *    3.	Bit [5] - CSD_PROCESS_STATUS - Update Status (on/off, 
 486:Generated_Source\PSoC4/CSD_Control.c **** *       centroid position)
 487:Generated_Source\PSoC4/CSD_Control.c **** *    4.	Bit [4] - CSD_PROCESS_THRESHOLDS - Update Thresholds 
 488:Generated_Source\PSoC4/CSD_Control.c **** *       (only in CSD auto-tuning mode)
 489:Generated_Source\PSoC4/CSD_Control.c **** *    5.	Bit [3] - CSD_PROCESS_CALC_NOISE - Calculate Noise (only in
 490:Generated_Source\PSoC4/CSD_Control.c **** *       CSD auto-tuning mode)
 491:Generated_Source\PSoC4/CSD_Control.c **** *    6.	Bit [2] - CSD_PROCESS_DIFFCOUNTS - Update Difference Counts
 492:Generated_Source\PSoC4/CSD_Control.c **** *    7.	Bit [1] - CSD_PROCESS_BASELINE - Update Baselines
 493:Generated_Source\PSoC4/CSD_Control.c **** *    8.	Bit [0] - CSD_PROCESS_FILTER - Run Firmware Filter
 494:Generated_Source\PSoC4/CSD_Control.c **** *
 495:Generated_Source\PSoC4/CSD_Control.c **** * \return
 496:Generated_Source\PSoC4/CSD_Control.c **** *  Returns the status of the widget processing operation:
 497:Generated_Source\PSoC4/CSD_Control.c **** *    - CYRET_SUCCESS if processing is successfully performed.
 498:Generated_Source\PSoC4/CSD_Control.c **** *    - CYRET_BAD_PARAM if the input parameter is invalid.
 499:Generated_Source\PSoC4/CSD_Control.c **** *
 500:Generated_Source\PSoC4/CSD_Control.c **** *******************************************************************************/
 501:Generated_Source\PSoC4/CSD_Control.c **** cystatus CSD_ProcessWidgetExt(uint32 widgetId, uint32 mode)
 502:Generated_Source\PSoC4/CSD_Control.c **** {
 377              		.loc 1 502 0
 378              		.cfi_startproc
 379              	.LVL43:
 380 0000 F0B5     		push	{r4, r5, r6, r7, lr}
 381              		.cfi_def_cfa_offset 20
 382              		.cfi_offset 4, -20
 383              		.cfi_offset 5, -16
 384              		.cfi_offset 6, -12
 385              		.cfi_offset 7, -8
 386              		.cfi_offset 14, -4
 387 0002 5746     		mov	r7, r10
 388 0004 4E46     		mov	r6, r9
 389 0006 C0B4     		push	{r6, r7}
 390              		.cfi_def_cfa_offset 28
ARM GAS  C:\Users\raymond\AppData\Local\Temp\cctozp4c.s 			page 17


 391              		.cfi_offset 9, -28
 392              		.cfi_offset 10, -24
 393 0008 83B0     		sub	sp, sp, #12
 394              		.cfi_def_cfa_offset 40
 395              	.LVL44:
 503:Generated_Source\PSoC4/CSD_Control.c ****     uint32 snsCount;
 504:Generated_Source\PSoC4/CSD_Control.c ****     cystatus result = CYRET_BAD_PARAM;
 505:Generated_Source\PSoC4/CSD_Control.c ****     CSD_FLASH_WD_STRUCT const *ptrFlashWdgt;
 506:Generated_Source\PSoC4/CSD_Control.c ****     CSD_PTR_FILTER_VARIANT fltrHistV;
 507:Generated_Source\PSoC4/CSD_Control.c ****     CSD_RAM_SNS_STRUCT *ptrSns;
 508:Generated_Source\PSoC4/CSD_Control.c **** 
 509:Generated_Source\PSoC4/CSD_Control.c ****     #if (0u != CSD_TOTAL_CSD_WIDGETS)
 510:Generated_Source\PSoC4/CSD_Control.c ****         uint32 isProxWdgt;
 511:Generated_Source\PSoC4/CSD_Control.c ****     #endif
 512:Generated_Source\PSoC4/CSD_Control.c **** 
 513:Generated_Source\PSoC4/CSD_Control.c ****     if (widgetId < CSD_TOTAL_WIDGETS)
 396              		.loc 1 513 0
 397 000a 0028     		cmp	r0, #0
 398 000c 2AD1     		bne	.L37
 399 000e 0191     		str	r1, [sp, #4]
 400 0010 8246     		mov	r10, r0
 514:Generated_Source\PSoC4/CSD_Control.c ****     {
 515:Generated_Source\PSoC4/CSD_Control.c ****         ptrFlashWdgt = &CSD_dsFlash.wdgtArray[widgetId];
 401              		.loc 1 515 0
 402 0012 C300     		lsl	r3, r0, #3
 403 0014 1B1A     		sub	r3, r3, r0
 404 0016 9B00     		lsl	r3, r3, #2
 405 0018 164A     		ldr	r2, .L40
 406 001a 9E18     		add	r6, r3, r2
 407              	.LVL45:
 516:Generated_Source\PSoC4/CSD_Control.c ****         snsCount = CSD_GET_SNS_CNT_BY_PTR(ptrFlashWdgt);
 408              		.loc 1 516 0
 409 001c F38A     		ldrh	r3, [r6, #22]
 410              	.LVL46:
 517:Generated_Source\PSoC4/CSD_Control.c ****         ptrSns = ptrFlashWdgt->ptr2SnsRam;
 411              		.loc 1 517 0
 412 001e B468     		ldr	r4, [r6, #8]
 413              	.LVL47:
 518:Generated_Source\PSoC4/CSD_Control.c ****         fltrHistV.ptr = ptrFlashWdgt->ptr2FltrHistory;
 414              		.loc 1 518 0
 415 0020 F568     		ldr	r5, [r6, #12]
 416              	.LVL48:
 519:Generated_Source\PSoC4/CSD_Control.c **** 
 520:Generated_Source\PSoC4/CSD_Control.c ****         switch(CSD_GET_SENSE_METHOD(ptrFlashWdgt))
 521:Generated_Source\PSoC4/CSD_Control.c ****         {
 522:Generated_Source\PSoC4/CSD_Control.c ****         #if (0u != CSD_TOTAL_CSD_WIDGETS)
 523:Generated_Source\PSoC4/CSD_Control.c ****             case CSD_SENSE_METHOD_CSD_E:
 524:Generated_Source\PSoC4/CSD_Control.c ****             {
 525:Generated_Source\PSoC4/CSD_Control.c ****                 /* Determine if widget is type of proximity.
 526:Generated_Source\PSoC4/CSD_Control.c ****                  * The Proximity widgets use different filters and
 527:Generated_Source\PSoC4/CSD_Control.c ****                  * therefore have different filter history object structure */
 528:Generated_Source\PSoC4/CSD_Control.c ****                 isProxWdgt =
 529:Generated_Source\PSoC4/CSD_Control.c ****                     (CSD_GET_WIDGET_TYPE(ptrFlashWdgt) == CSD_WD_PROXIMITY_E) ? 1Lu : 0Lu;
 417              		.loc 1 529 0
 418 0022 327E     		ldrb	r2, [r6, #24]
 419 0024 062A     		cmp	r2, #6
 420 0026 02D1     		bne	.L38
ARM GAS  C:\Users\raymond\AppData\Local\Temp\cctozp4c.s 			page 18


 421 0028 053A     		sub	r2, r2, #5
 422 002a 9146     		mov	r9, r2
 423 002c 0EE0     		b	.L34
 424              	.L38:
 425 002e 0022     		mov	r2, #0
 426 0030 9146     		mov	r9, r2
 427              	.LVL49:
 530:Generated_Source\PSoC4/CSD_Control.c **** 
 531:Generated_Source\PSoC4/CSD_Control.c ****                 /* Run the desired processing for the all CSD widget sensors */
 532:Generated_Source\PSoC4/CSD_Control.c ****                 for (;snsCount-- > 0u;)
 428              		.loc 1 532 0
 429 0032 0BE0     		b	.L34
 430              	.LVL50:
 431              	.L36:
 533:Generated_Source\PSoC4/CSD_Control.c ****                 {
 534:Generated_Source\PSoC4/CSD_Control.c ****                     CSD_DpProcessCsdSensorRawCountsExt(ptrFlashWdgt, ptrSns, fltrHistV, mode);
 432              		.loc 1 534 0
 433 0034 301C     		mov	r0, r6
 434 0036 211C     		mov	r1, r4
 435 0038 2A1C     		mov	r2, r5
 436 003a 019B     		ldr	r3, [sp, #4]
 437 003c FFF7FEFF 		bl	CSD_DpProcessCsdSensorRawCountsExt
 438              	.LVL51:
 535:Generated_Source\PSoC4/CSD_Control.c **** 
 536:Generated_Source\PSoC4/CSD_Control.c ****                     /* Move to the next sensor and filter history objects */
 537:Generated_Source\PSoC4/CSD_Control.c ****                     ptrSns++;
 439              		.loc 1 537 0
 440 0040 0A34     		add	r4, r4, #10
 441              	.LVL52:
 538:Generated_Source\PSoC4/CSD_Control.c ****                     CSD_INC_FLTR_OBJ_VARIANT(isProxWdgt, fltrHistV);
 442              		.loc 1 538 0
 443 0042 4B46     		mov	r3, r9
 444 0044 002B     		cmp	r3, #0
 445 0046 00D1     		bne	.L35
 446              		.loc 1 538 0 is_stmt 0 discriminator 1
 447 0048 0235     		add	r5, r5, #2
 448              	.LVL53:
 449              	.L35:
 450 004a 3B1C     		mov	r3, r7
 451              	.LVL54:
 452              	.L34:
 532:Generated_Source\PSoC4/CSD_Control.c ****                 {
 453              		.loc 1 532 0 is_stmt 1
 454 004c 5F1E     		sub	r7, r3, #1
 455              	.LVL55:
 456 004e 002B     		cmp	r3, #0
 457 0050 F0D1     		bne	.L36
 539:Generated_Source\PSoC4/CSD_Control.c ****                 }
 540:Generated_Source\PSoC4/CSD_Control.c **** 
 541:Generated_Source\PSoC4/CSD_Control.c ****                 if (0u != (mode & CSD_PROCESS_STATUS))
 458              		.loc 1 541 0
 459 0052 019B     		ldr	r3, [sp, #4]
 460 0054 9B06     		lsl	r3, r3, #26
 461 0056 07D5     		bpl	.L39
 542:Generated_Source\PSoC4/CSD_Control.c ****                 {
 543:Generated_Source\PSoC4/CSD_Control.c ****                     CSD_DpProcessCsdWidgetStatus(widgetId, ptrFlashWdgt);
 462              		.loc 1 543 0
ARM GAS  C:\Users\raymond\AppData\Local\Temp\cctozp4c.s 			page 19


 463 0058 5046     		mov	r0, r10
 464 005a 311C     		mov	r1, r6
 465 005c FFF7FEFF 		bl	CSD_DpProcessCsdWidgetStatus
 466              	.LVL56:
 544:Generated_Source\PSoC4/CSD_Control.c ****                 }
 545:Generated_Source\PSoC4/CSD_Control.c ****                 break;
 546:Generated_Source\PSoC4/CSD_Control.c ****             }
 547:Generated_Source\PSoC4/CSD_Control.c ****         #endif /* #if (0u != CSD_TOTAL_CSD_WIDGETS) */
 548:Generated_Source\PSoC4/CSD_Control.c **** 
 549:Generated_Source\PSoC4/CSD_Control.c ****         #if (0u != CSD_TOTAL_CSX_WIDGETS)
 550:Generated_Source\PSoC4/CSD_Control.c ****             case CSD_SENSE_METHOD_CSX_E:
 551:Generated_Source\PSoC4/CSD_Control.c **** 
 552:Generated_Source\PSoC4/CSD_Control.c ****                 #if (0u != CSD_CSX_MULTIPHASE_TX_EN)
 553:Generated_Source\PSoC4/CSD_Control.c ****                     if ((0u != (mode & CSD_PROCESS_DECONVOLUTION)) &&
 554:Generated_Source\PSoC4/CSD_Control.c ****                         (0u != (ptrFlashWdgt->staticConfig & CSD_MULTIPHASE_TX_MASK)))
 555:Generated_Source\PSoC4/CSD_Control.c ****                     {
 556:Generated_Source\PSoC4/CSD_Control.c ****                         CSD_DpDeconvolution(ptrFlashWdgt);
 557:Generated_Source\PSoC4/CSD_Control.c ****                     }
 558:Generated_Source\PSoC4/CSD_Control.c ****                 #endif /* #if (0u != CSD_CSX_MULTIPHASE_TX_EN) */
 559:Generated_Source\PSoC4/CSD_Control.c **** 
 560:Generated_Source\PSoC4/CSD_Control.c ****                 /* Run the desired processing for the all CSX widget sensors */
 561:Generated_Source\PSoC4/CSD_Control.c ****                 for (;snsCount-- > 0u;)
 562:Generated_Source\PSoC4/CSD_Control.c ****                 {
 563:Generated_Source\PSoC4/CSD_Control.c ****                     CSD_DpProcessCsxSensorRawCountsExt(ptrFlashWdgt, ptrSns, fltrHistV, mode);
 564:Generated_Source\PSoC4/CSD_Control.c **** 
 565:Generated_Source\PSoC4/CSD_Control.c ****                     /* Move to the next sensor and filter history objects */
 566:Generated_Source\PSoC4/CSD_Control.c ****                     ptrSns++;
 567:Generated_Source\PSoC4/CSD_Control.c ****                     CSD_INC_FLTR_OBJ_VARIANT(0u, fltrHistV);
 568:Generated_Source\PSoC4/CSD_Control.c ****                 }
 569:Generated_Source\PSoC4/CSD_Control.c **** 
 570:Generated_Source\PSoC4/CSD_Control.c ****                 if (0u != (mode & CSD_PROCESS_STATUS))
 571:Generated_Source\PSoC4/CSD_Control.c ****                 {
 572:Generated_Source\PSoC4/CSD_Control.c ****                     CSD_DpProcessCsxWidgetStatus(widgetId, ptrFlashWdgt);
 573:Generated_Source\PSoC4/CSD_Control.c ****                 }
 574:Generated_Source\PSoC4/CSD_Control.c ****                 break;
 575:Generated_Source\PSoC4/CSD_Control.c ****         #endif /* #if (0u != CSD_TOTAL_CSX_WIDGETS) */
 576:Generated_Source\PSoC4/CSD_Control.c **** 
 577:Generated_Source\PSoC4/CSD_Control.c ****         default:
 578:Generated_Source\PSoC4/CSD_Control.c ****             CYASSERT(0u);
 579:Generated_Source\PSoC4/CSD_Control.c ****             break;
 580:Generated_Source\PSoC4/CSD_Control.c ****         }
 581:Generated_Source\PSoC4/CSD_Control.c **** 
 582:Generated_Source\PSoC4/CSD_Control.c ****         result = CYRET_SUCCESS;
 467              		.loc 1 582 0
 468 0060 0020     		mov	r0, #0
 469 0062 02E0     		b	.L32
 470              	.LVL57:
 471              	.L37:
 504:Generated_Source\PSoC4/CSD_Control.c ****     CSD_FLASH_WD_STRUCT const *ptrFlashWdgt;
 472              		.loc 1 504 0
 473 0064 0120     		mov	r0, #1
 474              	.LVL58:
 475 0066 00E0     		b	.L32
 476              	.LVL59:
 477              	.L39:
 478              		.loc 1 582 0
 479 0068 0020     		mov	r0, #0
ARM GAS  C:\Users\raymond\AppData\Local\Temp\cctozp4c.s 			page 20


 480              	.LVL60:
 481              	.L32:
 583:Generated_Source\PSoC4/CSD_Control.c ****     }
 584:Generated_Source\PSoC4/CSD_Control.c **** 
 585:Generated_Source\PSoC4/CSD_Control.c ****     return result;
 586:Generated_Source\PSoC4/CSD_Control.c **** }
 482              		.loc 1 586 0
 483 006a 03B0     		add	sp, sp, #12
 484              		@ sp needed
 485              	.LVL61:
 486 006c 0CBC     		pop	{r2, r3}
 487 006e 9146     		mov	r9, r2
 488 0070 9A46     		mov	r10, r3
 489 0072 F0BD     		pop	{r4, r5, r6, r7, pc}
 490              	.L41:
 491              		.align	2
 492              	.L40:
 493 0074 00000000 		.word	CSD_dsFlash
 494              		.cfi_endproc
 495              	.LFE7:
 496              		.size	CSD_ProcessWidgetExt, .-CSD_ProcessWidgetExt
 497              		.section	.text.CSD_ProcessSensorExt,"ax",%progbits
 498              		.align	2
 499              		.global	CSD_ProcessSensorExt
 500              		.code	16
 501              		.thumb_func
 502              		.type	CSD_ProcessSensorExt, %function
 503              	CSD_ProcessSensorExt:
 504              	.LFB8:
 587:Generated_Source\PSoC4/CSD_Control.c **** 
 588:Generated_Source\PSoC4/CSD_Control.c **** /*******************************************************************************
 589:Generated_Source\PSoC4/CSD_Control.c **** * Function Name: CSD_ProcessSensorExt
 590:Generated_Source\PSoC4/CSD_Control.c **** ****************************************************************************//**
 591:Generated_Source\PSoC4/CSD_Control.c **** *
 592:Generated_Source\PSoC4/CSD_Control.c **** * \brief
 593:Generated_Source\PSoC4/CSD_Control.c **** *  Performs customized data processing on the selected widget's sensor.
 594:Generated_Source\PSoC4/CSD_Control.c **** *
 595:Generated_Source\PSoC4/CSD_Control.c **** * \details
 596:Generated_Source\PSoC4/CSD_Control.c **** *  This function performs data processes for the specified sensor specified by
 597:Generated_Source\PSoC4/CSD_Control.c **** *  the mode parameter. The execution order of the requested operations is from 
 598:Generated_Source\PSoC4/CSD_Control.c **** *  LSB to MSB of the mode parameter. If a different order is needed, this 
 599:Generated_Source\PSoC4/CSD_Control.c **** *  function can be called multiple times with the required mode parameter.
 600:Generated_Source\PSoC4/CSD_Control.c **** *  
 601:Generated_Source\PSoC4/CSD_Control.c **** *  This function can be used with any of the available scan functions. This 
 602:Generated_Source\PSoC4/CSD_Control.c **** *  function should be called only after a specified sensor in the widget is 
 603:Generated_Source\PSoC4/CSD_Control.c **** *  scanned. Calling this function multiple times with the same mode without 
 604:Generated_Source\PSoC4/CSD_Control.c **** *  sensor scanning causes unexpected behavior. This function ignores the value 
 605:Generated_Source\PSoC4/CSD_Control.c **** *  of the wdgtEnable register. 
 606:Generated_Source\PSoC4/CSD_Control.c **** *  
 607:Generated_Source\PSoC4/CSD_Control.c **** *  The CSD_PROCESS_CALC_NOISE and 
 608:Generated_Source\PSoC4/CSD_Control.c **** *  CSD_PROCESS_THRESHOLDS flags are supported by the CSD sensing 
 609:Generated_Source\PSoC4/CSD_Control.c **** *  method only when the auto-tuning mode is enabled.
 610:Generated_Source\PSoC4/CSD_Control.c **** *  
 611:Generated_Source\PSoC4/CSD_Control.c **** *  The pipeline scan method (i.e. during scanning of a sensor perform processing
 612:Generated_Source\PSoC4/CSD_Control.c **** *  of a previously scanned sensor) can be implemented using this function and it
 613:Generated_Source\PSoC4/CSD_Control.c **** *  may reduce the total scan/process time, increase the refresh rate and 
 614:Generated_Source\PSoC4/CSD_Control.c **** *  decrease the power consumption.
ARM GAS  C:\Users\raymond\AppData\Local\Temp\cctozp4c.s 			page 21


 615:Generated_Source\PSoC4/CSD_Control.c **** *
 616:Generated_Source\PSoC4/CSD_Control.c **** * \param widgetId  
 617:Generated_Source\PSoC4/CSD_Control.c **** *  Specify the ID number of the widget to process one of its sensors. 
 618:Generated_Source\PSoC4/CSD_Control.c **** *  A macro for the widget ID can be found in the 
 619:Generated_Source\PSoC4/CSD_Control.c **** *  CSD_Configuration.h file defined as 
 620:Generated_Source\PSoC4/CSD_Control.c **** *  CSD_<WidgetName>_WDGT_ID
 621:Generated_Source\PSoC4/CSD_Control.c **** *  
 622:Generated_Source\PSoC4/CSD_Control.c **** * \param sensorId  
 623:Generated_Source\PSoC4/CSD_Control.c **** *  Specify the ID number of the sensor within the widget to process it.
 624:Generated_Source\PSoC4/CSD_Control.c **** *  A macro for the sensor ID within a specified widget can be found in the
 625:Generated_Source\PSoC4/CSD_Control.c **** *  CSD_Configuration.h file defined as 
 626:Generated_Source\PSoC4/CSD_Control.c **** *  CSD_<WidgetName>_SNS<SensorNumber>_ID
 627:Generated_Source\PSoC4/CSD_Control.c **** *  
 628:Generated_Source\PSoC4/CSD_Control.c **** * \param mode      
 629:Generated_Source\PSoC4/CSD_Control.c **** *  Specify the type of the sensor processing that needs to be executed for the
 630:Generated_Source\PSoC4/CSD_Control.c **** *  specified sensor:
 631:Generated_Source\PSoC4/CSD_Control.c **** *    1. Bits [31..5] - Reserved
 632:Generated_Source\PSoC4/CSD_Control.c **** *    2. Bits [4..0] - CSD_PROCESS_ALL - Executes all tasks
 633:Generated_Source\PSoC4/CSD_Control.c **** *    3. Bit [4] - CSD_PROCESS_THRESHOLDS - Updates Thresholds (only
 634:Generated_Source\PSoC4/CSD_Control.c **** *       in auto-tuning mode)
 635:Generated_Source\PSoC4/CSD_Control.c **** *    4. Bit [3] - CSD_PROCESS_CALC_NOISE - Calculates Noise (only 
 636:Generated_Source\PSoC4/CSD_Control.c **** *       in auto-tuning mode)
 637:Generated_Source\PSoC4/CSD_Control.c **** *    5. Bit [2] - CSD_PROCESS_DIFFCOUNTS - Updates Difference Count
 638:Generated_Source\PSoC4/CSD_Control.c **** *    6. Bit [1] - CSD_PROCESS_BASELINE - Updates Baseline
 639:Generated_Source\PSoC4/CSD_Control.c **** *    7. Bit [0] - CSD_PROCESS_FILTER - Runs Firmware Filter
 640:Generated_Source\PSoC4/CSD_Control.c **** *
 641:Generated_Source\PSoC4/CSD_Control.c **** * \return
 642:Generated_Source\PSoC4/CSD_Control.c **** *  Returns the status of the sensor process operation:
 643:Generated_Source\PSoC4/CSD_Control.c **** *    - CYRET_SUCCESS if processing is successfully performed.
 644:Generated_Source\PSoC4/CSD_Control.c **** *    - CYRET_BAD_PARAM if the input parameter is invalid.
 645:Generated_Source\PSoC4/CSD_Control.c **** *
 646:Generated_Source\PSoC4/CSD_Control.c **** *******************************************************************************/
 647:Generated_Source\PSoC4/CSD_Control.c **** cystatus CSD_ProcessSensorExt(uint32 widgetId, uint32 sensorId, uint32 mode)
 648:Generated_Source\PSoC4/CSD_Control.c **** {
 505              		.loc 1 648 0
 506              		.cfi_startproc
 507              	.LVL62:
 508 0000 F0B5     		push	{r4, r5, r6, r7, lr}
 509              		.cfi_def_cfa_offset 20
 510              		.cfi_offset 4, -20
 511              		.cfi_offset 5, -16
 512              		.cfi_offset 6, -12
 513              		.cfi_offset 7, -8
 514              		.cfi_offset 14, -4
 515 0002 4746     		mov	r7, r8
 516 0004 80B4     		push	{r7}
 517              		.cfi_def_cfa_offset 24
 518              		.cfi_offset 8, -24
 519 0006 82B0     		sub	sp, sp, #8
 520              		.cfi_def_cfa_offset 32
 521              	.LVL63:
 649:Generated_Source\PSoC4/CSD_Control.c ****     cystatus result = CYRET_BAD_PARAM;
 650:Generated_Source\PSoC4/CSD_Control.c ****     CSD_FLASH_WD_STRUCT const *ptrFlashWdgt;
 651:Generated_Source\PSoC4/CSD_Control.c ****     CSD_PTR_FILTER_VARIANT fltrHistV;
 652:Generated_Source\PSoC4/CSD_Control.c ****     CSD_RAM_SNS_STRUCT *ptrSns;
 653:Generated_Source\PSoC4/CSD_Control.c **** 
 654:Generated_Source\PSoC4/CSD_Control.c ****     if ((widgetId < CSD_TOTAL_WIDGETS) && (sensorId < CSD_GET_SENSOR_COUNT(widgetId)))
ARM GAS  C:\Users\raymond\AppData\Local\Temp\cctozp4c.s 			page 22


 522              		.loc 1 654 0
 523 0008 0028     		cmp	r0, #0
 524 000a 23D1     		bne	.L45
 525              		.loc 1 654 0 is_stmt 0 discriminator 1
 526 000c C400     		lsl	r4, r0, #3
 527 000e 241A     		sub	r4, r4, r0
 528 0010 A400     		lsl	r4, r4, #2
 529 0012 144B     		ldr	r3, .L47
 530 0014 1C19     		add	r4, r3, r4
 531 0016 E38A     		ldrh	r3, [r4, #22]
 532 0018 8B42     		cmp	r3, r1
 533 001a 1DD9     		bls	.L46
 655:Generated_Source\PSoC4/CSD_Control.c ****     {
 656:Generated_Source\PSoC4/CSD_Control.c ****         ptrFlashWdgt = &CSD_dsFlash.wdgtArray[widgetId];
 534              		.loc 1 656 0 is_stmt 1
 535 001c C400     		lsl	r4, r0, #3
 536 001e 271A     		sub	r7, r4, r0
 537 0020 BF00     		lsl	r7, r7, #2
 538 0022 104B     		ldr	r3, .L47
 539 0024 9846     		mov	r8, r3
 540 0026 4744     		add	r7, r7, r8
 541              	.LVL64:
 657:Generated_Source\PSoC4/CSD_Control.c ****         fltrHistV.ptr = ptrFlashWdgt->ptr2FltrHistory;
 542              		.loc 1 657 0
 543 0028 FE68     		ldr	r6, [r7, #12]
 544 002a 0196     		str	r6, [sp, #4]
 545              	.LVL65:
 658:Generated_Source\PSoC4/CSD_Control.c ****         ptrSns = ptrFlashWdgt->ptr2SnsRam;
 659:Generated_Source\PSoC4/CSD_Control.c ****         ptrSns += sensorId;
 546              		.loc 1 659 0
 547 002c 8B00     		lsl	r3, r1, #2
 548 002e 5B18     		add	r3, r3, r1
 549 0030 5B00     		lsl	r3, r3, #1
 550 0032 BD68     		ldr	r5, [r7, #8]
 551 0034 AC46     		mov	ip, r5
 552 0036 9C44     		add	ip, ip, r3
 553              	.LVL66:
 660:Generated_Source\PSoC4/CSD_Control.c **** 
 661:Generated_Source\PSoC4/CSD_Control.c ****         switch(CSD_GET_SENSE_METHOD(ptrFlashWdgt))
 662:Generated_Source\PSoC4/CSD_Control.c ****         {
 663:Generated_Source\PSoC4/CSD_Control.c ****         #if (0u != CSD_TOTAL_CSD_WIDGETS)
 664:Generated_Source\PSoC4/CSD_Control.c ****             case CSD_SENSE_METHOD_CSD_E:
 665:Generated_Source\PSoC4/CSD_Control.c ****                 if (CSD_WD_PROXIMITY_E == (CSD_WD_TYPE_ENUM)ptrFlashWdgt->wdgtType)
 554              		.loc 1 665 0
 555 0038 3B7E     		ldrb	r3, [r7, #24]
 556 003a 062B     		cmp	r3, #6
 557 003c 02D0     		beq	.L44
 666:Generated_Source\PSoC4/CSD_Control.c ****                 {
 667:Generated_Source\PSoC4/CSD_Control.c ****                     #if (0u != CSD_PROX_RC_FILTER_EN)
 668:Generated_Source\PSoC4/CSD_Control.c ****                         fltrHistV.ptr = &fltrHistV.ptrProx[sensorId];
 669:Generated_Source\PSoC4/CSD_Control.c ****                     #endif /* #if (0u != CSD_PROX_RC_FILTER_EN) */
 670:Generated_Source\PSoC4/CSD_Control.c ****                 }
 671:Generated_Source\PSoC4/CSD_Control.c ****                 else
 672:Generated_Source\PSoC4/CSD_Control.c ****                 {
 673:Generated_Source\PSoC4/CSD_Control.c ****                     #if (0u != CSD_REGULAR_RC_FILTER_EN)
 674:Generated_Source\PSoC4/CSD_Control.c ****                         fltrHistV.ptr = &fltrHistV.ptrRegular[sensorId];
 558              		.loc 1 674 0
ARM GAS  C:\Users\raymond\AppData\Local\Temp\cctozp4c.s 			page 23


 559 003e 4D00     		lsl	r5, r1, #1
 560 0040 7319     		add	r3, r6, r5
 561              	.LVL67:
 562 0042 0193     		str	r3, [sp, #4]
 563              	.L44:
 564 0044 131C     		mov	r3, r2
 565              	.LVL68:
 675:Generated_Source\PSoC4/CSD_Control.c ****                     #endif /* #if (0u != CSD_REGULAR_RC_FILTER_EN) */
 676:Generated_Source\PSoC4/CSD_Control.c ****                 }
 677:Generated_Source\PSoC4/CSD_Control.c **** 
 678:Generated_Source\PSoC4/CSD_Control.c ****                 CSD_DpProcessCsdSensorRawCountsExt(ptrFlashWdgt, ptrSns, fltrHistV, mode);
 566              		.loc 1 678 0
 567 0046 381C     		mov	r0, r7
 568              	.LVL69:
 569 0048 6146     		mov	r1, ip
 570              	.LVL70:
 571 004a 019A     		ldr	r2, [sp, #4]
 572              	.LVL71:
 573 004c FFF7FEFF 		bl	CSD_DpProcessCsdSensorRawCountsExt
 574              	.LVL72:
 679:Generated_Source\PSoC4/CSD_Control.c ****                 break;
 680:Generated_Source\PSoC4/CSD_Control.c ****         #endif /* #if (0u != CSD_TOTAL_CSD_WIDGETS) */
 681:Generated_Source\PSoC4/CSD_Control.c **** 
 682:Generated_Source\PSoC4/CSD_Control.c ****         #if (0u != CSD_TOTAL_CSX_WIDGETS)
 683:Generated_Source\PSoC4/CSD_Control.c ****             case CSD_SENSE_METHOD_CSX_E:
 684:Generated_Source\PSoC4/CSD_Control.c ****                 #if (0u != CSD_REGULAR_RC_FILTER_EN)
 685:Generated_Source\PSoC4/CSD_Control.c ****                     fltrHistV.ptr = &fltrHistV.ptrRegular[sensorId];
 686:Generated_Source\PSoC4/CSD_Control.c ****                 #endif /* #if (0u != CSD_REGULAR_RC_FILTER_EN) */
 687:Generated_Source\PSoC4/CSD_Control.c **** 
 688:Generated_Source\PSoC4/CSD_Control.c ****                 CSD_DpProcessCsxSensorRawCountsExt(ptrFlashWdgt, ptrSns, fltrHistV, mode);
 689:Generated_Source\PSoC4/CSD_Control.c ****                 break;
 690:Generated_Source\PSoC4/CSD_Control.c ****         #endif /* #if (0u != CSD_TOTAL_CSX_WIDGETS) */
 691:Generated_Source\PSoC4/CSD_Control.c **** 
 692:Generated_Source\PSoC4/CSD_Control.c ****         default:
 693:Generated_Source\PSoC4/CSD_Control.c ****             CYASSERT(0u);
 694:Generated_Source\PSoC4/CSD_Control.c ****             break;
 695:Generated_Source\PSoC4/CSD_Control.c ****         }
 696:Generated_Source\PSoC4/CSD_Control.c **** 
 697:Generated_Source\PSoC4/CSD_Control.c ****         result = CYRET_SUCCESS;
 575              		.loc 1 697 0
 576 0050 0020     		mov	r0, #0
 577 0052 02E0     		b	.L43
 578              	.LVL73:
 579              	.L45:
 649:Generated_Source\PSoC4/CSD_Control.c ****     CSD_FLASH_WD_STRUCT const *ptrFlashWdgt;
 580              		.loc 1 649 0
 581 0054 0120     		mov	r0, #1
 582              	.LVL74:
 583 0056 00E0     		b	.L43
 584              	.LVL75:
 585              	.L46:
 586 0058 0120     		mov	r0, #1
 587              	.LVL76:
 588              	.L43:
 698:Generated_Source\PSoC4/CSD_Control.c ****     }
 699:Generated_Source\PSoC4/CSD_Control.c **** 
 700:Generated_Source\PSoC4/CSD_Control.c ****     return result;
ARM GAS  C:\Users\raymond\AppData\Local\Temp\cctozp4c.s 			page 24


 701:Generated_Source\PSoC4/CSD_Control.c **** }
 589              		.loc 1 701 0
 590 005a 02B0     		add	sp, sp, #8
 591              		@ sp needed
 592 005c 04BC     		pop	{r2}
 593 005e 9046     		mov	r8, r2
 594 0060 F0BD     		pop	{r4, r5, r6, r7, pc}
 595              	.L48:
 596 0062 C046     		.align	2
 597              	.L47:
 598 0064 00000000 		.word	CSD_dsFlash
 599              		.cfi_endproc
 600              	.LFE8:
 601              		.size	CSD_ProcessSensorExt, .-CSD_ProcessSensorExt
 602              		.section	.text.CSD_Sleep,"ax",%progbits
 603              		.align	2
 604              		.global	CSD_Sleep
 605              		.code	16
 606              		.thumb_func
 607              		.type	CSD_Sleep, %function
 608              	CSD_Sleep:
 609              	.LFB9:
 702:Generated_Source\PSoC4/CSD_Control.c **** 
 703:Generated_Source\PSoC4/CSD_Control.c **** #if (0u != CSD_SELF_TEST_EN)
 704:Generated_Source\PSoC4/CSD_Control.c **** /*******************************************************************************
 705:Generated_Source\PSoC4/CSD_Control.c **** * Function Name: CSD_RunSelfTest
 706:Generated_Source\PSoC4/CSD_Control.c **** ****************************************************************************//**
 707:Generated_Source\PSoC4/CSD_Control.c **** *
 708:Generated_Source\PSoC4/CSD_Control.c **** * \brief
 709:Generated_Source\PSoC4/CSD_Control.c **** *  Run-self tests based on the test-enable mask.
 710:Generated_Source\PSoC4/CSD_Control.c **** *
 711:Generated_Source\PSoC4/CSD_Control.c **** * \details
 712:Generated_Source\PSoC4/CSD_Control.c **** *  The test bit-mask can take the following values:
 713:Generated_Source\PSoC4/CSD_Control.c **** *   - CSD_TST_SHORTS        - A test for the sensor shorts.
 714:Generated_Source\PSoC4/CSD_Control.c **** *   - CSD_TST_GLOBAL_CRC    - Verify CRC of RAM and FLASH global parameters.
 715:Generated_Source\PSoC4/CSD_Control.c **** *   - CSD_TST_BSL_RAW_LIMTS - Verify Baseline and Raw Counts limits.
 716:Generated_Source\PSoC4/CSD_Control.c **** *   - CSD_TST_WIDGET_CRC    - Verify CRC of the widget's configuration in RAM.
 717:Generated_Source\PSoC4/CSD_Control.c **** *   - CSD_TST_CSD_CAPS      - Measure the Cmod and Ctank capacitance.
 718:Generated_Source\PSoC4/CSD_Control.c **** *   - CSD_TST_CSX_CAPS      - Measure the Cint1 and Cint2 capacitance.
 719:Generated_Source\PSoC4/CSD_Control.c **** *   - CSD_TST_BASELINES     - Verify the baselines consistency (inverse copy).
 720:Generated_Source\PSoC4/CSD_Control.c **** *
 721:Generated_Source\PSoC4/CSD_Control.c **** *  The results of the capacitance measurements are stored into the corresponding
 722:Generated_Source\PSoC4/CSD_Control.c **** *  registers of the data structure.
 723:Generated_Source\PSoC4/CSD_Control.c **** *
 724:Generated_Source\PSoC4/CSD_Control.c **** * \param testEnMask The bit-mask with the requested tests to be executed.
 725:Generated_Source\PSoC4/CSD_Control.c **** *
 726:Generated_Source\PSoC4/CSD_Control.c **** * \return
 727:Generated_Source\PSoC4/CSD_Control.c **** *  Bitmask that contains 0 for passed tests (or not selected with the testEnMask)
 728:Generated_Source\PSoC4/CSD_Control.c **** *  and 1 for the failed tests.
 729:Generated_Source\PSoC4/CSD_Control.c **** *
 730:Generated_Source\PSoC4/CSD_Control.c **** *******************************************************************************/
 731:Generated_Source\PSoC4/CSD_Control.c **** uint32 CSD_RunSelfTest(uint32 testEnMask)
 732:Generated_Source\PSoC4/CSD_Control.c **** {
 733:Generated_Source\PSoC4/CSD_Control.c ****     /* The implementation of this API will be
 734:Generated_Source\PSoC4/CSD_Control.c ****      * provided in the FUTURE version of the
 735:Generated_Source\PSoC4/CSD_Control.c ****      * CSD component */
 736:Generated_Source\PSoC4/CSD_Control.c ****     (void)testEnMask;
ARM GAS  C:\Users\raymond\AppData\Local\Temp\cctozp4c.s 			page 25


 737:Generated_Source\PSoC4/CSD_Control.c ****     return 0Lu;
 738:Generated_Source\PSoC4/CSD_Control.c **** }
 739:Generated_Source\PSoC4/CSD_Control.c **** #endif /* #if CSD_SELF_TEST_EN */
 740:Generated_Source\PSoC4/CSD_Control.c **** 
 741:Generated_Source\PSoC4/CSD_Control.c **** 
 742:Generated_Source\PSoC4/CSD_Control.c **** /*******************************************************************************
 743:Generated_Source\PSoC4/CSD_Control.c **** * Function Name: CSD_Sleep
 744:Generated_Source\PSoC4/CSD_Control.c **** ****************************************************************************//**
 745:Generated_Source\PSoC4/CSD_Control.c **** *
 746:Generated_Source\PSoC4/CSD_Control.c **** * \brief
 747:Generated_Source\PSoC4/CSD_Control.c **** *  Prepares the component to deep sleep.
 748:Generated_Source\PSoC4/CSD_Control.c **** *
 749:Generated_Source\PSoC4/CSD_Control.c **** * \details
 750:Generated_Source\PSoC4/CSD_Control.c **** *  Currently this function is empty and exists as a place for future updates, 
 751:Generated_Source\PSoC4/CSD_Control.c **** *  this function shall be used to prepare the component to enter deep sleep.
 752:Generated_Source\PSoC4/CSD_Control.c **** *
 753:Generated_Source\PSoC4/CSD_Control.c **** *******************************************************************************/
 754:Generated_Source\PSoC4/CSD_Control.c **** void CSD_Sleep(void)
 755:Generated_Source\PSoC4/CSD_Control.c **** {
 610              		.loc 1 755 0
 611              		.cfi_startproc
 756:Generated_Source\PSoC4/CSD_Control.c **** }
 612              		.loc 1 756 0
 613              		@ sp needed
 614 0000 7047     		bx	lr
 615              		.cfi_endproc
 616              	.LFE9:
 617              		.size	CSD_Sleep, .-CSD_Sleep
 618 0002 C046     		.section	.text.CSD_Wakeup,"ax",%progbits
 619              		.align	2
 620              		.global	CSD_Wakeup
 621              		.code	16
 622              		.thumb_func
 623              		.type	CSD_Wakeup, %function
 624              	CSD_Wakeup:
 625              	.LFB10:
 757:Generated_Source\PSoC4/CSD_Control.c **** 
 758:Generated_Source\PSoC4/CSD_Control.c **** 
 759:Generated_Source\PSoC4/CSD_Control.c **** /*******************************************************************************
 760:Generated_Source\PSoC4/CSD_Control.c **** * Function Name: CSD_Wakeup
 761:Generated_Source\PSoC4/CSD_Control.c **** ****************************************************************************//**
 762:Generated_Source\PSoC4/CSD_Control.c **** *
 763:Generated_Source\PSoC4/CSD_Control.c **** * \brief
 764:Generated_Source\PSoC4/CSD_Control.c **** *  Currently this function is empty and exists as a place for future updates,
 765:Generated_Source\PSoC4/CSD_Control.c **** *  this function shall be used to resume the component after exiting deep sleep.
 766:Generated_Source\PSoC4/CSD_Control.c **** *
 767:Generated_Source\PSoC4/CSD_Control.c **** * \details
 768:Generated_Source\PSoC4/CSD_Control.c **** *  This function resumes the component after sleep.
 769:Generated_Source\PSoC4/CSD_Control.c **** *
 770:Generated_Source\PSoC4/CSD_Control.c **** *******************************************************************************/
 771:Generated_Source\PSoC4/CSD_Control.c **** void CSD_Wakeup(void)
 772:Generated_Source\PSoC4/CSD_Control.c **** {
 626              		.loc 1 772 0
 627              		.cfi_startproc
 773:Generated_Source\PSoC4/CSD_Control.c **** }
 628              		.loc 1 773 0
 629              		@ sp needed
ARM GAS  C:\Users\raymond\AppData\Local\Temp\cctozp4c.s 			page 26


 630 0000 7047     		bx	lr
 631              		.cfi_endproc
 632              	.LFE10:
 633              		.size	CSD_Wakeup, .-CSD_Wakeup
 634 0002 C046     		.bss
 635              		.set	.LANCHOR0,. + 0
 636              		.type	CSD_InitVar, %object
 637              		.size	CSD_InitVar, 1
 638              	CSD_InitVar:
 639 0000 00       		.space	1
 640              		.text
 641              	.Letext0:
 642              		.file 2 "Generated_Source\\PSoC4\\cytypes.h"
 643              		.file 3 "Generated_Source\\PSoC4\\CSD_Configuration.h"
 644              		.file 4 "Generated_Source\\PSoC4\\CSD_Structure.h"
 645              		.file 5 "Generated_Source\\PSoC4\\CSD_Tuner.h"
 646              		.file 6 "Generated_Source\\PSoC4\\CSD_Processing.h"
 647              		.file 7 "Generated_Source\\PSoC4\\CSD_Sensing.h"
 648              		.file 8 "Generated_Source\\PSoC4\\CyLib.h"
 649              		.file 9 "Generated_Source\\PSoC4\\cyPm.h"
 650              		.file 10 "Generated_Source\\PSoC4\\CSD_Filter.h"