ARM GAS  C:\Users\raymond\AppData\Local\Temp\cc1iXpfr.s 			page 1


   1              		.cpu cortex-m0plus
   2              		.fpu softvfp
   3              		.eabi_attribute 20, 1
   4              		.eabi_attribute 21, 1
   5              		.eabi_attribute 23, 3
   6              		.eabi_attribute 24, 1
   7              		.eabi_attribute 25, 1
   8              		.eabi_attribute 26, 1
   9              		.eabi_attribute 30, 1
  10              		.eabi_attribute 34, 0
  11              		.eabi_attribute 18, 4
  12              		.code	16
  13              		.file	"I2C_1_I2C_MASTER.c"
  14              		.text
  15              	.Ltext0:
  16              		.cfi_sections	.debug_frame
  17              		.section	.text.I2C_1_I2CMasterSendStart,"ax",%progbits
  18              		.align	2
  19              		.global	I2C_1_I2CMasterSendStart
  20              		.code	16
  21              		.thumb_func
  22              		.type	I2C_1_I2CMasterSendStart, %function
  23              	I2C_1_I2CMasterSendStart:
  24              	.LFB3:
  25              		.file 1 "Generated_Source\\PSoC4\\I2C_1_I2C_MASTER.c"
   1:Generated_Source\PSoC4/I2C_1_I2C_MASTER.c **** /***************************************************************************//**
   2:Generated_Source\PSoC4/I2C_1_I2C_MASTER.c **** * \file I2C_1_I2C_MASTER.c
   3:Generated_Source\PSoC4/I2C_1_I2C_MASTER.c **** * \version 3.20
   4:Generated_Source\PSoC4/I2C_1_I2C_MASTER.c **** *
   5:Generated_Source\PSoC4/I2C_1_I2C_MASTER.c **** * \brief
   6:Generated_Source\PSoC4/I2C_1_I2C_MASTER.c **** *  This file provides the source code to the API for the SCB Component in
   7:Generated_Source\PSoC4/I2C_1_I2C_MASTER.c **** *  I2C Master mode.
   8:Generated_Source\PSoC4/I2C_1_I2C_MASTER.c **** *
   9:Generated_Source\PSoC4/I2C_1_I2C_MASTER.c **** * Note:
  10:Generated_Source\PSoC4/I2C_1_I2C_MASTER.c **** *
  11:Generated_Source\PSoC4/I2C_1_I2C_MASTER.c **** *******************************************************************************
  12:Generated_Source\PSoC4/I2C_1_I2C_MASTER.c **** * \copyright
  13:Generated_Source\PSoC4/I2C_1_I2C_MASTER.c **** * Copyright 2013-2016, Cypress Semiconductor Corporation.  All rights reserved.
  14:Generated_Source\PSoC4/I2C_1_I2C_MASTER.c **** * You may use this file only in accordance with the license, terms, conditions,
  15:Generated_Source\PSoC4/I2C_1_I2C_MASTER.c **** * disclaimers, and limitations in the end user license agreement accompanying
  16:Generated_Source\PSoC4/I2C_1_I2C_MASTER.c **** * the software package with which this file was provided.
  17:Generated_Source\PSoC4/I2C_1_I2C_MASTER.c **** *******************************************************************************/
  18:Generated_Source\PSoC4/I2C_1_I2C_MASTER.c **** 
  19:Generated_Source\PSoC4/I2C_1_I2C_MASTER.c **** #include "I2C_1_PVT.h"
  20:Generated_Source\PSoC4/I2C_1_I2C_MASTER.c **** #include "I2C_1_I2C_PVT.h"
  21:Generated_Source\PSoC4/I2C_1_I2C_MASTER.c **** 
  22:Generated_Source\PSoC4/I2C_1_I2C_MASTER.c **** #if(I2C_1_I2C_MASTER_CONST)
  23:Generated_Source\PSoC4/I2C_1_I2C_MASTER.c **** 
  24:Generated_Source\PSoC4/I2C_1_I2C_MASTER.c **** /***************************************
  25:Generated_Source\PSoC4/I2C_1_I2C_MASTER.c **** *      I2C Master Private Vars
  26:Generated_Source\PSoC4/I2C_1_I2C_MASTER.c **** ***************************************/
  27:Generated_Source\PSoC4/I2C_1_I2C_MASTER.c **** 
  28:Generated_Source\PSoC4/I2C_1_I2C_MASTER.c **** /* Master variables */
  29:Generated_Source\PSoC4/I2C_1_I2C_MASTER.c **** volatile uint16 I2C_1_mstrStatus;      /* Master Status byte  */
  30:Generated_Source\PSoC4/I2C_1_I2C_MASTER.c **** volatile uint8  I2C_1_mstrControl;     /* Master Control byte */
  31:Generated_Source\PSoC4/I2C_1_I2C_MASTER.c **** 
  32:Generated_Source\PSoC4/I2C_1_I2C_MASTER.c **** /* Receive buffer variables */
ARM GAS  C:\Users\raymond\AppData\Local\Temp\cc1iXpfr.s 			page 2


  33:Generated_Source\PSoC4/I2C_1_I2C_MASTER.c **** volatile uint8 * I2C_1_mstrRdBufPtr;   /* Pointer to Master Read buffer */
  34:Generated_Source\PSoC4/I2C_1_I2C_MASTER.c **** volatile uint32  I2C_1_mstrRdBufSize;  /* Master Read buffer size       */
  35:Generated_Source\PSoC4/I2C_1_I2C_MASTER.c **** volatile uint32  I2C_1_mstrRdBufIndex; /* Master Read buffer Index      */
  36:Generated_Source\PSoC4/I2C_1_I2C_MASTER.c **** 
  37:Generated_Source\PSoC4/I2C_1_I2C_MASTER.c **** /* Transmit buffer variables */
  38:Generated_Source\PSoC4/I2C_1_I2C_MASTER.c **** volatile uint8 * I2C_1_mstrWrBufPtr;   /* Pointer to Master Write buffer */
  39:Generated_Source\PSoC4/I2C_1_I2C_MASTER.c **** volatile uint32  I2C_1_mstrWrBufSize;  /* Master Write buffer size       */
  40:Generated_Source\PSoC4/I2C_1_I2C_MASTER.c **** volatile uint32  I2C_1_mstrWrBufIndex; /* Master Write buffer Index      */
  41:Generated_Source\PSoC4/I2C_1_I2C_MASTER.c **** volatile uint32  I2C_1_mstrWrBufIndexTmp; /* Master Write buffer Index Tmp */
  42:Generated_Source\PSoC4/I2C_1_I2C_MASTER.c **** 
  43:Generated_Source\PSoC4/I2C_1_I2C_MASTER.c **** #if (!I2C_1_CY_SCBIP_V0 && \
  44:Generated_Source\PSoC4/I2C_1_I2C_MASTER.c ****     I2C_1_I2C_MULTI_MASTER_SLAVE_CONST && I2C_1_I2C_WAKE_ENABLE_CONST)
  45:Generated_Source\PSoC4/I2C_1_I2C_MASTER.c ****     static void I2C_1_I2CMasterDisableEcAm(void);
  46:Generated_Source\PSoC4/I2C_1_I2C_MASTER.c **** #endif /* (!I2C_1_CY_SCBIP_V0) */
  47:Generated_Source\PSoC4/I2C_1_I2C_MASTER.c **** 
  48:Generated_Source\PSoC4/I2C_1_I2C_MASTER.c **** 
  49:Generated_Source\PSoC4/I2C_1_I2C_MASTER.c **** /*******************************************************************************
  50:Generated_Source\PSoC4/I2C_1_I2C_MASTER.c **** * Function Name: I2C_1_I2CMasterWriteBuf
  51:Generated_Source\PSoC4/I2C_1_I2C_MASTER.c **** ****************************************************************************//**
  52:Generated_Source\PSoC4/I2C_1_I2C_MASTER.c **** *
  53:Generated_Source\PSoC4/I2C_1_I2C_MASTER.c **** *  Automatically writes an entire buffer of data to a slave device.
  54:Generated_Source\PSoC4/I2C_1_I2C_MASTER.c **** *  Once the data transfer is initiated by this function, further data transfer
  55:Generated_Source\PSoC4/I2C_1_I2C_MASTER.c **** *  is handled by the included ISR.
  56:Generated_Source\PSoC4/I2C_1_I2C_MASTER.c **** *  Enables the I2C interrupt and clears I2C_1_I2C_MSTAT_WR_CMPLT 
  57:Generated_Source\PSoC4/I2C_1_I2C_MASTER.c **** *  status.
  58:Generated_Source\PSoC4/I2C_1_I2C_MASTER.c **** *
  59:Generated_Source\PSoC4/I2C_1_I2C_MASTER.c **** *  \param slaveAddr: 7-bit slave address.
  60:Generated_Source\PSoC4/I2C_1_I2C_MASTER.c **** *  \param xferData: Pointer to buffer of data to be sent.
  61:Generated_Source\PSoC4/I2C_1_I2C_MASTER.c **** *  \param cnt: Size of buffer to send.
  62:Generated_Source\PSoC4/I2C_1_I2C_MASTER.c **** *  \param mode: Transfer mode defines:
  63:Generated_Source\PSoC4/I2C_1_I2C_MASTER.c **** *  (1) Whether a start or restart condition is generated at the beginning 
  64:Generated_Source\PSoC4/I2C_1_I2C_MASTER.c **** *  of the transfer, and
  65:Generated_Source\PSoC4/I2C_1_I2C_MASTER.c **** *  (2) Whether the transfer is completed or halted before the stop 
  66:Generated_Source\PSoC4/I2C_1_I2C_MASTER.c **** *  condition is generated on the bus.Transfer mode, mode constants 
  67:Generated_Source\PSoC4/I2C_1_I2C_MASTER.c **** *  may be ORed together.
  68:Generated_Source\PSoC4/I2C_1_I2C_MASTER.c **** *  - I2C_1_I2C_MODE_COMPLETE_XFER - Perform complete transfer 
  69:Generated_Source\PSoC4/I2C_1_I2C_MASTER.c **** *    from Start to Stop.
  70:Generated_Source\PSoC4/I2C_1_I2C_MASTER.c **** *  - I2C_1_I2C_MODE_REPEAT_START - Send Repeat Start instead 
  71:Generated_Source\PSoC4/I2C_1_I2C_MASTER.c **** *    of Start. A Stop is generated after transfer is completed unless 
  72:Generated_Source\PSoC4/I2C_1_I2C_MASTER.c **** *    NO_STOP is specified.
  73:Generated_Source\PSoC4/I2C_1_I2C_MASTER.c **** *  - I2C_1_I2C_MODE_NO_STOP Execute transfer without a Stop.
  74:Generated_Source\PSoC4/I2C_1_I2C_MASTER.c **** *    The following transfer expected to perform ReStart.
  75:Generated_Source\PSoC4/I2C_1_I2C_MASTER.c **** *
  76:Generated_Source\PSoC4/I2C_1_I2C_MASTER.c **** * \return
  77:Generated_Source\PSoC4/I2C_1_I2C_MASTER.c **** *  Error status.
  78:Generated_Source\PSoC4/I2C_1_I2C_MASTER.c **** *  - I2C_1_I2C_MSTR_NO_ERROR - Function complete without error. 
  79:Generated_Source\PSoC4/I2C_1_I2C_MASTER.c **** *    The master started the transfer.
  80:Generated_Source\PSoC4/I2C_1_I2C_MASTER.c **** *  - I2C_1_I2C_MSTR_BUS_BUSY - Bus is busy. Nothing was sent on
  81:Generated_Source\PSoC4/I2C_1_I2C_MASTER.c **** *    the bus. The attempt has to be retried.
  82:Generated_Source\PSoC4/I2C_1_I2C_MASTER.c **** *  - I2C_1_I2C_MSTR_NOT_READY - Master is not ready for to start
  83:Generated_Source\PSoC4/I2C_1_I2C_MASTER.c **** *    transfer. A master still has not completed previous transaction or a 
  84:Generated_Source\PSoC4/I2C_1_I2C_MASTER.c **** *    slave operation is in progress (in multi-master-slave configuration).
  85:Generated_Source\PSoC4/I2C_1_I2C_MASTER.c **** *    Nothing was sent on the bus. The attempt has to be retried.
  86:Generated_Source\PSoC4/I2C_1_I2C_MASTER.c **** *
  87:Generated_Source\PSoC4/I2C_1_I2C_MASTER.c **** * \globalvars
  88:Generated_Source\PSoC4/I2C_1_I2C_MASTER.c **** *  I2C_1_mstrStatus  - used to store current status of I2C Master.
  89:Generated_Source\PSoC4/I2C_1_I2C_MASTER.c **** *  I2C_1_state       - used to store current state of software FSM.
ARM GAS  C:\Users\raymond\AppData\Local\Temp\cc1iXpfr.s 			page 3


  90:Generated_Source\PSoC4/I2C_1_I2C_MASTER.c **** *  I2C_1_mstrControl - used to control master end of transaction with
  91:Generated_Source\PSoC4/I2C_1_I2C_MASTER.c **** *  or without the Stop generation.
  92:Generated_Source\PSoC4/I2C_1_I2C_MASTER.c **** *  I2C_1_mstrWrBufPtr - used to store pointer to master write buffer.
  93:Generated_Source\PSoC4/I2C_1_I2C_MASTER.c **** *  I2C_1_mstrWrBufIndex - used to current index within master write
  94:Generated_Source\PSoC4/I2C_1_I2C_MASTER.c **** *  buffer.
  95:Generated_Source\PSoC4/I2C_1_I2C_MASTER.c **** *  I2C_1_mstrWrBufSize - used to store master write buffer size.
  96:Generated_Source\PSoC4/I2C_1_I2C_MASTER.c **** *
  97:Generated_Source\PSoC4/I2C_1_I2C_MASTER.c **** *******************************************************************************/
  98:Generated_Source\PSoC4/I2C_1_I2C_MASTER.c **** uint32 I2C_1_I2CMasterWriteBuf(uint32 slaveAddress, uint8 * wrData, uint32 cnt, uint32 mode)
  99:Generated_Source\PSoC4/I2C_1_I2C_MASTER.c **** {
 100:Generated_Source\PSoC4/I2C_1_I2C_MASTER.c ****     uint32 errStatus;
 101:Generated_Source\PSoC4/I2C_1_I2C_MASTER.c **** 
 102:Generated_Source\PSoC4/I2C_1_I2C_MASTER.c ****     errStatus = I2C_1_I2C_MSTR_NOT_READY;
 103:Generated_Source\PSoC4/I2C_1_I2C_MASTER.c **** 
 104:Generated_Source\PSoC4/I2C_1_I2C_MASTER.c ****     if(NULL != wrData)  /* Check buffer pointer */
 105:Generated_Source\PSoC4/I2C_1_I2C_MASTER.c ****     {
 106:Generated_Source\PSoC4/I2C_1_I2C_MASTER.c ****         /* Check FSM state and bus before generating Start/ReStart condition */
 107:Generated_Source\PSoC4/I2C_1_I2C_MASTER.c ****         if(I2C_1_CHECK_I2C_FSM_IDLE)
 108:Generated_Source\PSoC4/I2C_1_I2C_MASTER.c ****         {
 109:Generated_Source\PSoC4/I2C_1_I2C_MASTER.c ****             I2C_1_DisableInt();  /* Lock from interruption */
 110:Generated_Source\PSoC4/I2C_1_I2C_MASTER.c **** 
 111:Generated_Source\PSoC4/I2C_1_I2C_MASTER.c ****             /* Check bus state */
 112:Generated_Source\PSoC4/I2C_1_I2C_MASTER.c ****             errStatus = I2C_1_CHECK_I2C_STATUS(I2C_1_I2C_STATUS_BUS_BUSY) ?
 113:Generated_Source\PSoC4/I2C_1_I2C_MASTER.c ****                             I2C_1_I2C_MSTR_BUS_BUSY : I2C_1_I2C_MSTR_NO_ERROR;
 114:Generated_Source\PSoC4/I2C_1_I2C_MASTER.c ****         }
 115:Generated_Source\PSoC4/I2C_1_I2C_MASTER.c ****         else if(I2C_1_CHECK_I2C_FSM_HALT)
 116:Generated_Source\PSoC4/I2C_1_I2C_MASTER.c ****         {
 117:Generated_Source\PSoC4/I2C_1_I2C_MASTER.c ****             I2C_1_mstrStatus &= (uint16) ~I2C_1_I2C_MSTAT_XFER_HALT;
 118:Generated_Source\PSoC4/I2C_1_I2C_MASTER.c ****                               errStatus  = I2C_1_I2C_MSTR_NO_ERROR;
 119:Generated_Source\PSoC4/I2C_1_I2C_MASTER.c ****         }
 120:Generated_Source\PSoC4/I2C_1_I2C_MASTER.c ****         else
 121:Generated_Source\PSoC4/I2C_1_I2C_MASTER.c ****         {
 122:Generated_Source\PSoC4/I2C_1_I2C_MASTER.c ****             /* Unexpected FSM state: exit */
 123:Generated_Source\PSoC4/I2C_1_I2C_MASTER.c ****         }
 124:Generated_Source\PSoC4/I2C_1_I2C_MASTER.c ****     }
 125:Generated_Source\PSoC4/I2C_1_I2C_MASTER.c **** 
 126:Generated_Source\PSoC4/I2C_1_I2C_MASTER.c ****     /* Check if master is ready to start  */
 127:Generated_Source\PSoC4/I2C_1_I2C_MASTER.c ****     if(I2C_1_I2C_MSTR_NO_ERROR == errStatus) /* No error proceed */
 128:Generated_Source\PSoC4/I2C_1_I2C_MASTER.c ****     {
 129:Generated_Source\PSoC4/I2C_1_I2C_MASTER.c ****     #if (!I2C_1_CY_SCBIP_V0 && \
 130:Generated_Source\PSoC4/I2C_1_I2C_MASTER.c ****         I2C_1_I2C_MULTI_MASTER_SLAVE_CONST && I2C_1_I2C_WAKE_ENABLE_CONST)
 131:Generated_Source\PSoC4/I2C_1_I2C_MASTER.c ****             I2C_1_I2CMasterDisableEcAm();
 132:Generated_Source\PSoC4/I2C_1_I2C_MASTER.c ****     #endif /* (!I2C_1_CY_SCBIP_V0) */
 133:Generated_Source\PSoC4/I2C_1_I2C_MASTER.c **** 
 134:Generated_Source\PSoC4/I2C_1_I2C_MASTER.c ****         /* Set up write transaction */
 135:Generated_Source\PSoC4/I2C_1_I2C_MASTER.c ****         I2C_1_state = I2C_1_I2C_FSM_MSTR_WR_ADDR;
 136:Generated_Source\PSoC4/I2C_1_I2C_MASTER.c ****         I2C_1_mstrWrBufIndexTmp = 0u;
 137:Generated_Source\PSoC4/I2C_1_I2C_MASTER.c ****         I2C_1_mstrWrBufIndex    = 0u;
 138:Generated_Source\PSoC4/I2C_1_I2C_MASTER.c ****         I2C_1_mstrWrBufSize     = cnt;
 139:Generated_Source\PSoC4/I2C_1_I2C_MASTER.c ****         I2C_1_mstrWrBufPtr      = (volatile uint8 *) wrData;
 140:Generated_Source\PSoC4/I2C_1_I2C_MASTER.c ****         I2C_1_mstrControl       = (uint8) mode;
 141:Generated_Source\PSoC4/I2C_1_I2C_MASTER.c **** 
 142:Generated_Source\PSoC4/I2C_1_I2C_MASTER.c ****         slaveAddress = I2C_1_GET_I2C_8BIT_ADDRESS(slaveAddress);
 143:Generated_Source\PSoC4/I2C_1_I2C_MASTER.c **** 
 144:Generated_Source\PSoC4/I2C_1_I2C_MASTER.c ****         I2C_1_mstrStatus &= (uint16) ~I2C_1_I2C_MSTAT_WR_CMPLT;
 145:Generated_Source\PSoC4/I2C_1_I2C_MASTER.c **** 
 146:Generated_Source\PSoC4/I2C_1_I2C_MASTER.c ****         I2C_1_ClearMasterInterruptSource(I2C_1_INTR_MASTER_ALL);
ARM GAS  C:\Users\raymond\AppData\Local\Temp\cc1iXpfr.s 			page 4


 147:Generated_Source\PSoC4/I2C_1_I2C_MASTER.c ****         I2C_1_ClearTxInterruptSource(I2C_1_INTR_TX_UNDERFLOW);
 148:Generated_Source\PSoC4/I2C_1_I2C_MASTER.c **** 
 149:Generated_Source\PSoC4/I2C_1_I2C_MASTER.c ****         /* The TX and RX FIFO have to be EMPTY */
 150:Generated_Source\PSoC4/I2C_1_I2C_MASTER.c **** 
 151:Generated_Source\PSoC4/I2C_1_I2C_MASTER.c ****         /* Enable interrupt source to catch when address is sent */
 152:Generated_Source\PSoC4/I2C_1_I2C_MASTER.c ****         I2C_1_SetTxInterruptMode(I2C_1_INTR_TX_UNDERFLOW);
 153:Generated_Source\PSoC4/I2C_1_I2C_MASTER.c **** 
 154:Generated_Source\PSoC4/I2C_1_I2C_MASTER.c ****         /* Generate Start or ReStart */
 155:Generated_Source\PSoC4/I2C_1_I2C_MASTER.c ****         if(I2C_1_CHECK_I2C_MODE_RESTART(mode))
 156:Generated_Source\PSoC4/I2C_1_I2C_MASTER.c ****         {
 157:Generated_Source\PSoC4/I2C_1_I2C_MASTER.c ****             I2C_1_I2C_MASTER_GENERATE_RESTART;
 158:Generated_Source\PSoC4/I2C_1_I2C_MASTER.c ****             I2C_1_TX_FIFO_WR_REG = slaveAddress;
 159:Generated_Source\PSoC4/I2C_1_I2C_MASTER.c ****         }
 160:Generated_Source\PSoC4/I2C_1_I2C_MASTER.c ****         else
 161:Generated_Source\PSoC4/I2C_1_I2C_MASTER.c ****         {
 162:Generated_Source\PSoC4/I2C_1_I2C_MASTER.c ****             I2C_1_TX_FIFO_WR_REG = slaveAddress;
 163:Generated_Source\PSoC4/I2C_1_I2C_MASTER.c ****             I2C_1_I2C_MASTER_GENERATE_START;
 164:Generated_Source\PSoC4/I2C_1_I2C_MASTER.c ****         }
 165:Generated_Source\PSoC4/I2C_1_I2C_MASTER.c ****     }
 166:Generated_Source\PSoC4/I2C_1_I2C_MASTER.c **** 
 167:Generated_Source\PSoC4/I2C_1_I2C_MASTER.c ****     I2C_1_EnableInt();   /* Release lock */
 168:Generated_Source\PSoC4/I2C_1_I2C_MASTER.c **** 
 169:Generated_Source\PSoC4/I2C_1_I2C_MASTER.c ****     return(errStatus);
 170:Generated_Source\PSoC4/I2C_1_I2C_MASTER.c **** }
 171:Generated_Source\PSoC4/I2C_1_I2C_MASTER.c **** 
 172:Generated_Source\PSoC4/I2C_1_I2C_MASTER.c **** 
 173:Generated_Source\PSoC4/I2C_1_I2C_MASTER.c **** /*******************************************************************************
 174:Generated_Source\PSoC4/I2C_1_I2C_MASTER.c **** * Function Name: I2C_1_I2CMasterReadBuf
 175:Generated_Source\PSoC4/I2C_1_I2C_MASTER.c **** ****************************************************************************//**
 176:Generated_Source\PSoC4/I2C_1_I2C_MASTER.c **** *
 177:Generated_Source\PSoC4/I2C_1_I2C_MASTER.c **** *  Automatically reads an entire buffer of data from a slave device.
 178:Generated_Source\PSoC4/I2C_1_I2C_MASTER.c **** *  Once the data transfer is initiated by this function, further data transfer
 179:Generated_Source\PSoC4/I2C_1_I2C_MASTER.c **** *  is handled by the included ISR.
 180:Generated_Source\PSoC4/I2C_1_I2C_MASTER.c **** *  Enables the I2C interrupt and clears I2C_1_I2C_MSTAT_RD_CMPLT 
 181:Generated_Source\PSoC4/I2C_1_I2C_MASTER.c **** *  status.
 182:Generated_Source\PSoC4/I2C_1_I2C_MASTER.c **** *
 183:Generated_Source\PSoC4/I2C_1_I2C_MASTER.c **** *  \param slaveAddr: 7-bit slave address.
 184:Generated_Source\PSoC4/I2C_1_I2C_MASTER.c **** *  \param xferData: Pointer to buffer of data to be sent.
 185:Generated_Source\PSoC4/I2C_1_I2C_MASTER.c **** *  \param cnt: Size of buffer to send.
 186:Generated_Source\PSoC4/I2C_1_I2C_MASTER.c **** *  \param mode: Transfer mode defines:
 187:Generated_Source\PSoC4/I2C_1_I2C_MASTER.c **** *  (1) Whether a start or restart condition is generated at the beginning 
 188:Generated_Source\PSoC4/I2C_1_I2C_MASTER.c **** *  of the transfer, and
 189:Generated_Source\PSoC4/I2C_1_I2C_MASTER.c **** *  (2) Whether the transfer is completed or halted before the stop 
 190:Generated_Source\PSoC4/I2C_1_I2C_MASTER.c **** *  condition is generated on the bus.Transfer mode, mode constants may 
 191:Generated_Source\PSoC4/I2C_1_I2C_MASTER.c **** *  be ORed together. See I2C_1_I2CMasterWriteBuf() 
 192:Generated_Source\PSoC4/I2C_1_I2C_MASTER.c **** *  function for constants.
 193:Generated_Source\PSoC4/I2C_1_I2C_MASTER.c **** *
 194:Generated_Source\PSoC4/I2C_1_I2C_MASTER.c **** * \return
 195:Generated_Source\PSoC4/I2C_1_I2C_MASTER.c **** *  Error status.See I2C_1_I2CMasterWriteBuf() 
 196:Generated_Source\PSoC4/I2C_1_I2C_MASTER.c **** *  function for constants.
 197:Generated_Source\PSoC4/I2C_1_I2C_MASTER.c **** *
 198:Generated_Source\PSoC4/I2C_1_I2C_MASTER.c **** * \globalvars
 199:Generated_Source\PSoC4/I2C_1_I2C_MASTER.c **** *  I2C_1_mstrStatus  - used to store current status of I2C Master.
 200:Generated_Source\PSoC4/I2C_1_I2C_MASTER.c **** *  I2C_1_state       - used to store current state of software FSM.
 201:Generated_Source\PSoC4/I2C_1_I2C_MASTER.c **** *  I2C_1_mstrControl - used to control master end of transaction with
 202:Generated_Source\PSoC4/I2C_1_I2C_MASTER.c **** *  or without the Stop generation.
 203:Generated_Source\PSoC4/I2C_1_I2C_MASTER.c **** *  I2C_1_mstrRdBufPtr - used to store pointer to master read buffer.
ARM GAS  C:\Users\raymond\AppData\Local\Temp\cc1iXpfr.s 			page 5


 204:Generated_Source\PSoC4/I2C_1_I2C_MASTER.c **** *  I2C_1_mstrRdBufIndex - used to current index within master read
 205:Generated_Source\PSoC4/I2C_1_I2C_MASTER.c **** *  buffer.
 206:Generated_Source\PSoC4/I2C_1_I2C_MASTER.c **** *  I2C_1_mstrRdBufSize - used to store master read buffer size.
 207:Generated_Source\PSoC4/I2C_1_I2C_MASTER.c **** *
 208:Generated_Source\PSoC4/I2C_1_I2C_MASTER.c **** *******************************************************************************/
 209:Generated_Source\PSoC4/I2C_1_I2C_MASTER.c **** uint32 I2C_1_I2CMasterReadBuf(uint32 slaveAddress, uint8 * rdData, uint32 cnt, uint32 mode)
 210:Generated_Source\PSoC4/I2C_1_I2C_MASTER.c **** {
 211:Generated_Source\PSoC4/I2C_1_I2C_MASTER.c ****     uint32 errStatus;
 212:Generated_Source\PSoC4/I2C_1_I2C_MASTER.c **** 
 213:Generated_Source\PSoC4/I2C_1_I2C_MASTER.c ****     errStatus = I2C_1_I2C_MSTR_NOT_READY;
 214:Generated_Source\PSoC4/I2C_1_I2C_MASTER.c **** 
 215:Generated_Source\PSoC4/I2C_1_I2C_MASTER.c ****     if(NULL != rdData)
 216:Generated_Source\PSoC4/I2C_1_I2C_MASTER.c ****     {
 217:Generated_Source\PSoC4/I2C_1_I2C_MASTER.c ****         /* Check FSM state and bus before generating Start/ReStart condition */
 218:Generated_Source\PSoC4/I2C_1_I2C_MASTER.c ****         if(I2C_1_CHECK_I2C_FSM_IDLE)
 219:Generated_Source\PSoC4/I2C_1_I2C_MASTER.c ****         {
 220:Generated_Source\PSoC4/I2C_1_I2C_MASTER.c ****             I2C_1_DisableInt();  /* Lock from interruption */
 221:Generated_Source\PSoC4/I2C_1_I2C_MASTER.c **** 
 222:Generated_Source\PSoC4/I2C_1_I2C_MASTER.c ****             /* Check bus state */
 223:Generated_Source\PSoC4/I2C_1_I2C_MASTER.c ****             errStatus = I2C_1_CHECK_I2C_STATUS(I2C_1_I2C_STATUS_BUS_BUSY) ?
 224:Generated_Source\PSoC4/I2C_1_I2C_MASTER.c ****                             I2C_1_I2C_MSTR_BUS_BUSY : I2C_1_I2C_MSTR_NO_ERROR;
 225:Generated_Source\PSoC4/I2C_1_I2C_MASTER.c ****         }
 226:Generated_Source\PSoC4/I2C_1_I2C_MASTER.c ****         else if(I2C_1_CHECK_I2C_FSM_HALT)
 227:Generated_Source\PSoC4/I2C_1_I2C_MASTER.c ****         {
 228:Generated_Source\PSoC4/I2C_1_I2C_MASTER.c ****             I2C_1_mstrStatus &= (uint16) ~I2C_1_I2C_MSTAT_XFER_HALT;
 229:Generated_Source\PSoC4/I2C_1_I2C_MASTER.c ****                               errStatus  =  I2C_1_I2C_MSTR_NO_ERROR;
 230:Generated_Source\PSoC4/I2C_1_I2C_MASTER.c ****         }
 231:Generated_Source\PSoC4/I2C_1_I2C_MASTER.c ****         else
 232:Generated_Source\PSoC4/I2C_1_I2C_MASTER.c ****         {
 233:Generated_Source\PSoC4/I2C_1_I2C_MASTER.c ****             /* Unexpected FSM state: exit */
 234:Generated_Source\PSoC4/I2C_1_I2C_MASTER.c ****         }
 235:Generated_Source\PSoC4/I2C_1_I2C_MASTER.c ****     }
 236:Generated_Source\PSoC4/I2C_1_I2C_MASTER.c **** 
 237:Generated_Source\PSoC4/I2C_1_I2C_MASTER.c ****     /* Check master ready to proceed */
 238:Generated_Source\PSoC4/I2C_1_I2C_MASTER.c ****     if(I2C_1_I2C_MSTR_NO_ERROR == errStatus) /* No error proceed */
 239:Generated_Source\PSoC4/I2C_1_I2C_MASTER.c ****     {
 240:Generated_Source\PSoC4/I2C_1_I2C_MASTER.c ****         #if (!I2C_1_CY_SCBIP_V0 && \
 241:Generated_Source\PSoC4/I2C_1_I2C_MASTER.c ****         I2C_1_I2C_MULTI_MASTER_SLAVE_CONST && I2C_1_I2C_WAKE_ENABLE_CONST)
 242:Generated_Source\PSoC4/I2C_1_I2C_MASTER.c ****             I2C_1_I2CMasterDisableEcAm();
 243:Generated_Source\PSoC4/I2C_1_I2C_MASTER.c ****         #endif /* (!I2C_1_CY_SCBIP_V0) */
 244:Generated_Source\PSoC4/I2C_1_I2C_MASTER.c **** 
 245:Generated_Source\PSoC4/I2C_1_I2C_MASTER.c ****         /* Set up read transaction */
 246:Generated_Source\PSoC4/I2C_1_I2C_MASTER.c ****         I2C_1_state = I2C_1_I2C_FSM_MSTR_RD_ADDR;
 247:Generated_Source\PSoC4/I2C_1_I2C_MASTER.c ****         I2C_1_mstrRdBufIndex = 0u;
 248:Generated_Source\PSoC4/I2C_1_I2C_MASTER.c ****         I2C_1_mstrRdBufSize  = cnt;
 249:Generated_Source\PSoC4/I2C_1_I2C_MASTER.c ****         I2C_1_mstrRdBufPtr   = (volatile uint8 *) rdData;
 250:Generated_Source\PSoC4/I2C_1_I2C_MASTER.c ****         I2C_1_mstrControl    = (uint8) mode;
 251:Generated_Source\PSoC4/I2C_1_I2C_MASTER.c **** 
 252:Generated_Source\PSoC4/I2C_1_I2C_MASTER.c ****         slaveAddress = (I2C_1_GET_I2C_8BIT_ADDRESS(slaveAddress) | I2C_1_I2C_READ_FLAG);
 253:Generated_Source\PSoC4/I2C_1_I2C_MASTER.c **** 
 254:Generated_Source\PSoC4/I2C_1_I2C_MASTER.c ****         I2C_1_mstrStatus &= (uint16) ~I2C_1_I2C_MSTAT_RD_CMPLT;
 255:Generated_Source\PSoC4/I2C_1_I2C_MASTER.c **** 
 256:Generated_Source\PSoC4/I2C_1_I2C_MASTER.c ****         I2C_1_ClearMasterInterruptSource(I2C_1_INTR_MASTER_ALL);
 257:Generated_Source\PSoC4/I2C_1_I2C_MASTER.c **** 
 258:Generated_Source\PSoC4/I2C_1_I2C_MASTER.c ****         /* TX and RX FIFO have to be EMPTY */
 259:Generated_Source\PSoC4/I2C_1_I2C_MASTER.c **** 
 260:Generated_Source\PSoC4/I2C_1_I2C_MASTER.c ****         /* Prepare reading */
ARM GAS  C:\Users\raymond\AppData\Local\Temp\cc1iXpfr.s 			page 6


 261:Generated_Source\PSoC4/I2C_1_I2C_MASTER.c ****         if(I2C_1_mstrRdBufSize < I2C_1_I2C_FIFO_SIZE)
 262:Generated_Source\PSoC4/I2C_1_I2C_MASTER.c ****         {
 263:Generated_Source\PSoC4/I2C_1_I2C_MASTER.c ****             /* Reading byte-by-byte */
 264:Generated_Source\PSoC4/I2C_1_I2C_MASTER.c ****             I2C_1_SetRxInterruptMode(I2C_1_INTR_RX_NOT_EMPTY);
 265:Generated_Source\PSoC4/I2C_1_I2C_MASTER.c ****         }
 266:Generated_Source\PSoC4/I2C_1_I2C_MASTER.c ****         else
 267:Generated_Source\PSoC4/I2C_1_I2C_MASTER.c ****         {
 268:Generated_Source\PSoC4/I2C_1_I2C_MASTER.c ****             /* Receive RX FIFO chunks */
 269:Generated_Source\PSoC4/I2C_1_I2C_MASTER.c ****             I2C_1_ENABLE_MASTER_AUTO_DATA_ACK;
 270:Generated_Source\PSoC4/I2C_1_I2C_MASTER.c ****             I2C_1_SetRxInterruptMode(I2C_1_INTR_RX_FULL);
 271:Generated_Source\PSoC4/I2C_1_I2C_MASTER.c ****         }
 272:Generated_Source\PSoC4/I2C_1_I2C_MASTER.c **** 
 273:Generated_Source\PSoC4/I2C_1_I2C_MASTER.c ****         /* Generate Start or ReStart */
 274:Generated_Source\PSoC4/I2C_1_I2C_MASTER.c ****         if(I2C_1_CHECK_I2C_MODE_RESTART(mode))
 275:Generated_Source\PSoC4/I2C_1_I2C_MASTER.c ****         {
 276:Generated_Source\PSoC4/I2C_1_I2C_MASTER.c ****             I2C_1_I2C_MASTER_GENERATE_RESTART;
 277:Generated_Source\PSoC4/I2C_1_I2C_MASTER.c ****             I2C_1_TX_FIFO_WR_REG = (slaveAddress);
 278:Generated_Source\PSoC4/I2C_1_I2C_MASTER.c ****         }
 279:Generated_Source\PSoC4/I2C_1_I2C_MASTER.c ****         else
 280:Generated_Source\PSoC4/I2C_1_I2C_MASTER.c ****         {
 281:Generated_Source\PSoC4/I2C_1_I2C_MASTER.c ****             I2C_1_TX_FIFO_WR_REG = (slaveAddress);
 282:Generated_Source\PSoC4/I2C_1_I2C_MASTER.c ****             I2C_1_I2C_MASTER_GENERATE_START;
 283:Generated_Source\PSoC4/I2C_1_I2C_MASTER.c ****         }
 284:Generated_Source\PSoC4/I2C_1_I2C_MASTER.c ****     }
 285:Generated_Source\PSoC4/I2C_1_I2C_MASTER.c **** 
 286:Generated_Source\PSoC4/I2C_1_I2C_MASTER.c ****     I2C_1_EnableInt();   /* Release lock */
 287:Generated_Source\PSoC4/I2C_1_I2C_MASTER.c **** 
 288:Generated_Source\PSoC4/I2C_1_I2C_MASTER.c ****     return(errStatus);
 289:Generated_Source\PSoC4/I2C_1_I2C_MASTER.c **** }
 290:Generated_Source\PSoC4/I2C_1_I2C_MASTER.c **** 
 291:Generated_Source\PSoC4/I2C_1_I2C_MASTER.c **** 
 292:Generated_Source\PSoC4/I2C_1_I2C_MASTER.c **** /*******************************************************************************
 293:Generated_Source\PSoC4/I2C_1_I2C_MASTER.c **** * Function Name: I2C_1_I2CMasterSendStart
 294:Generated_Source\PSoC4/I2C_1_I2C_MASTER.c **** ****************************************************************************//**
 295:Generated_Source\PSoC4/I2C_1_I2C_MASTER.c **** *
 296:Generated_Source\PSoC4/I2C_1_I2C_MASTER.c **** *  Generates Start condition and sends slave address with read/write bit.
 297:Generated_Source\PSoC4/I2C_1_I2C_MASTER.c **** *  Disables the I2C interrupt.
 298:Generated_Source\PSoC4/I2C_1_I2C_MASTER.c **** *  This function is blocking and does not return until start condition and
 299:Generated_Source\PSoC4/I2C_1_I2C_MASTER.c **** *  address byte are sent and ACK/NACK response is received or errors occurred.
 300:Generated_Source\PSoC4/I2C_1_I2C_MASTER.c **** *
 301:Generated_Source\PSoC4/I2C_1_I2C_MASTER.c **** * \param slaveAddress: Right justified 7-bit Slave address (valid range 
 302:Generated_Source\PSoC4/I2C_1_I2C_MASTER.c **** *  8 to 120).
 303:Generated_Source\PSoC4/I2C_1_I2C_MASTER.c **** * \param bitRnW: Direction of the following transfer. 
 304:Generated_Source\PSoC4/I2C_1_I2C_MASTER.c **** *  It is defined by read/write bit within address byte.
 305:Generated_Source\PSoC4/I2C_1_I2C_MASTER.c **** *  - I2C_1_I2C_WRITE_XFER_MODE - Set write direction for the 
 306:Generated_Source\PSoC4/I2C_1_I2C_MASTER.c **** *    following transfer.
 307:Generated_Source\PSoC4/I2C_1_I2C_MASTER.c **** *  - I2C_1_I2C_READ_XFER_MODE - Set read direction for the 
 308:Generated_Source\PSoC4/I2C_1_I2C_MASTER.c **** *    following transfer.
 309:Generated_Source\PSoC4/I2C_1_I2C_MASTER.c **** *
 310:Generated_Source\PSoC4/I2C_1_I2C_MASTER.c **** * \return
 311:Generated_Source\PSoC4/I2C_1_I2C_MASTER.c **** *  Error status.
 312:Generated_Source\PSoC4/I2C_1_I2C_MASTER.c **** *   - I2C_1_I2C_MSTR_NO_ERROR - Function complete without error.
 313:Generated_Source\PSoC4/I2C_1_I2C_MASTER.c **** *   - I2C_1_I2C_MSTR_BUS_BUSY - Bus is busy. 
 314:Generated_Source\PSoC4/I2C_1_I2C_MASTER.c **** *     Nothing was sent on the bus. The attempt has to be retried.
 315:Generated_Source\PSoC4/I2C_1_I2C_MASTER.c **** *   - I2C_1_I2C_MSTR_NOT_READY - Master is not ready for to 
 316:Generated_Source\PSoC4/I2C_1_I2C_MASTER.c **** *     start transfer.
 317:Generated_Source\PSoC4/I2C_1_I2C_MASTER.c **** *     A master still has not completed previous transaction or a slave 
ARM GAS  C:\Users\raymond\AppData\Local\Temp\cc1iXpfr.s 			page 7


 318:Generated_Source\PSoC4/I2C_1_I2C_MASTER.c **** *     operation is in progress (in multi-master-slave configuration).
 319:Generated_Source\PSoC4/I2C_1_I2C_MASTER.c **** *     Nothing was sent on the bus. The attempt has to be retried.
 320:Generated_Source\PSoC4/I2C_1_I2C_MASTER.c **** *   - I2C_1_I2C_MSTR_ERR_LB_NAK - Error condition: Last byte was 
 321:Generated_Source\PSoC4/I2C_1_I2C_MASTER.c **** *     NAKed.
 322:Generated_Source\PSoC4/I2C_1_I2C_MASTER.c **** *   - I2C_1_I2C_MSTR_ERR_ARB_LOST - Error condition: Master lost 
 323:Generated_Source\PSoC4/I2C_1_I2C_MASTER.c **** *     arbitration.
 324:Generated_Source\PSoC4/I2C_1_I2C_MASTER.c **** *   - I2C_1_I2C_MSTR_ERR_BUS_ERR - Error condition: Master 
 325:Generated_Source\PSoC4/I2C_1_I2C_MASTER.c **** *     encountered a bus error. Bus error is misplaced start or stop detection.
 326:Generated_Source\PSoC4/I2C_1_I2C_MASTER.c **** *   - I2C_1_I2C_MSTR_ERR_ABORT_START - Error condition: The start 
 327:Generated_Source\PSoC4/I2C_1_I2C_MASTER.c **** *     condition generation was aborted due to beginning of Slave operation. 
 328:Generated_Source\PSoC4/I2C_1_I2C_MASTER.c **** *     This error condition is only applicable for Multi-Master-Slave mode.
 329:Generated_Source\PSoC4/I2C_1_I2C_MASTER.c **** *
 330:Generated_Source\PSoC4/I2C_1_I2C_MASTER.c **** * \globalvars
 331:Generated_Source\PSoC4/I2C_1_I2C_MASTER.c **** *  I2C_1_state - used to store current state of software FSM.
 332:Generated_Source\PSoC4/I2C_1_I2C_MASTER.c **** *
 333:Generated_Source\PSoC4/I2C_1_I2C_MASTER.c **** *******************************************************************************/
 334:Generated_Source\PSoC4/I2C_1_I2C_MASTER.c **** uint32 I2C_1_I2CMasterSendStart(uint32 slaveAddress, uint32 bitRnW)
 335:Generated_Source\PSoC4/I2C_1_I2C_MASTER.c **** {
  26              		.loc 1 335 0
  27              		.cfi_startproc
  28              	.LVL0:
  29 0000 38B5     		push	{r3, r4, r5, lr}
  30              		.cfi_def_cfa_offset 16
  31              		.cfi_offset 3, -16
  32              		.cfi_offset 4, -12
  33              		.cfi_offset 5, -8
  34              		.cfi_offset 14, -4
  35              	.LVL1:
 336:Generated_Source\PSoC4/I2C_1_I2C_MASTER.c ****     uint32  resetIp;
 337:Generated_Source\PSoC4/I2C_1_I2C_MASTER.c ****     uint32 errStatus;
 338:Generated_Source\PSoC4/I2C_1_I2C_MASTER.c **** 
 339:Generated_Source\PSoC4/I2C_1_I2C_MASTER.c ****     resetIp   = 0u;
 340:Generated_Source\PSoC4/I2C_1_I2C_MASTER.c ****     errStatus = I2C_1_I2C_MSTR_NOT_READY;
 341:Generated_Source\PSoC4/I2C_1_I2C_MASTER.c **** 
 342:Generated_Source\PSoC4/I2C_1_I2C_MASTER.c ****     /* Check FSM state before generating Start condition */
 343:Generated_Source\PSoC4/I2C_1_I2C_MASTER.c ****     if(I2C_1_CHECK_I2C_FSM_IDLE)
  36              		.loc 1 343 0
  37 0002 2E4B     		ldr	r3, .L12
  38 0004 1B78     		ldrb	r3, [r3]
  39 0006 102B     		cmp	r3, #16
  40 0008 53D1     		bne	.L8
 344:Generated_Source\PSoC4/I2C_1_I2C_MASTER.c ****     {
 345:Generated_Source\PSoC4/I2C_1_I2C_MASTER.c ****         /* If bus is free, generate Start condition */
 346:Generated_Source\PSoC4/I2C_1_I2C_MASTER.c ****         if(I2C_1_CHECK_I2C_STATUS(I2C_1_I2C_STATUS_BUS_BUSY))
  41              		.loc 1 346 0
  42 000a 2D4B     		ldr	r3, .L12+4
  43 000c 1B68     		ldr	r3, [r3]
  44 000e DB07     		lsl	r3, r3, #31
  45 0010 51D4     		bmi	.L9
  46 0012 0D1C     		mov	r5, r1
  47 0014 041C     		mov	r4, r0
 347:Generated_Source\PSoC4/I2C_1_I2C_MASTER.c ****         {
 348:Generated_Source\PSoC4/I2C_1_I2C_MASTER.c ****             errStatus = I2C_1_I2C_MSTR_BUS_BUSY;
 349:Generated_Source\PSoC4/I2C_1_I2C_MASTER.c ****         }
 350:Generated_Source\PSoC4/I2C_1_I2C_MASTER.c ****         else
 351:Generated_Source\PSoC4/I2C_1_I2C_MASTER.c ****         {
 352:Generated_Source\PSoC4/I2C_1_I2C_MASTER.c ****             I2C_1_DisableInt();  /* Lock from interruption */
ARM GAS  C:\Users\raymond\AppData\Local\Temp\cc1iXpfr.s 			page 8


  48              		.loc 1 352 0
  49 0016 0820     		mov	r0, #8
  50              	.LVL2:
  51 0018 FFF7FEFF 		bl	CyIntDisable
  52              	.LVL3:
 353:Generated_Source\PSoC4/I2C_1_I2C_MASTER.c **** 
 354:Generated_Source\PSoC4/I2C_1_I2C_MASTER.c ****         #if (!I2C_1_CY_SCBIP_V0 && \
 355:Generated_Source\PSoC4/I2C_1_I2C_MASTER.c ****             I2C_1_I2C_MULTI_MASTER_SLAVE_CONST && I2C_1_I2C_WAKE_ENABLE_CONST)
 356:Generated_Source\PSoC4/I2C_1_I2C_MASTER.c ****             I2C_1_I2CMasterDisableEcAm();
 357:Generated_Source\PSoC4/I2C_1_I2C_MASTER.c ****         #endif /* (!I2C_1_CY_SCBIP_V0) */
 358:Generated_Source\PSoC4/I2C_1_I2C_MASTER.c **** 
 359:Generated_Source\PSoC4/I2C_1_I2C_MASTER.c ****             slaveAddress = I2C_1_GET_I2C_8BIT_ADDRESS(slaveAddress);
  53              		.loc 1 359 0
  54 001c 6000     		lsl	r0, r4, #1
  55 001e FF23     		mov	r3, #255
  56 0020 1840     		and	r0, r3
  57              	.LVL4:
 360:Generated_Source\PSoC4/I2C_1_I2C_MASTER.c **** 
 361:Generated_Source\PSoC4/I2C_1_I2C_MASTER.c ****             if(0u == bitRnW) /* Write direction */
  58              		.loc 1 361 0
  59 0022 002D     		cmp	r5, #0
  60 0024 03D1     		bne	.L3
 362:Generated_Source\PSoC4/I2C_1_I2C_MASTER.c ****             {
 363:Generated_Source\PSoC4/I2C_1_I2C_MASTER.c ****                 I2C_1_state = I2C_1_I2C_FSM_MSTR_WR_DATA;
  61              		.loc 1 363 0
  62 0026 2422     		mov	r2, #36
  63 0028 244B     		ldr	r3, .L12
  64 002a 1A70     		strb	r2, [r3]
  65 002c 04E0     		b	.L4
  66              	.L3:
 364:Generated_Source\PSoC4/I2C_1_I2C_MASTER.c ****             }
 365:Generated_Source\PSoC4/I2C_1_I2C_MASTER.c ****             else /* Read direction */
 366:Generated_Source\PSoC4/I2C_1_I2C_MASTER.c ****             {
 367:Generated_Source\PSoC4/I2C_1_I2C_MASTER.c ****                 I2C_1_state = I2C_1_I2C_FSM_MSTR_RD_DATA;
  67              		.loc 1 367 0
  68 002e 2522     		mov	r2, #37
  69 0030 224B     		ldr	r3, .L12
  70 0032 1A70     		strb	r2, [r3]
 368:Generated_Source\PSoC4/I2C_1_I2C_MASTER.c ****                          slaveAddress |= I2C_1_I2C_READ_FLAG;
  71              		.loc 1 368 0
  72 0034 0123     		mov	r3, #1
  73 0036 1843     		orr	r0, r3
  74              	.LVL5:
  75              	.L4:
 369:Generated_Source\PSoC4/I2C_1_I2C_MASTER.c ****             }
 370:Generated_Source\PSoC4/I2C_1_I2C_MASTER.c **** 
 371:Generated_Source\PSoC4/I2C_1_I2C_MASTER.c ****             /* TX and RX FIFO have to be EMPTY */
 372:Generated_Source\PSoC4/I2C_1_I2C_MASTER.c **** 
 373:Generated_Source\PSoC4/I2C_1_I2C_MASTER.c ****             I2C_1_TX_FIFO_WR_REG = slaveAddress; /* Put address in TX FIFO */
  76              		.loc 1 373 0
  77 0038 224B     		ldr	r3, .L12+8
  78 003a 1860     		str	r0, [r3]
 374:Generated_Source\PSoC4/I2C_1_I2C_MASTER.c ****             I2C_1_ClearMasterInterruptSource(I2C_1_INTR_MASTER_ALL);
  79              		.loc 1 374 0
  80 003c 224A     		ldr	r2, .L12+12
  81 003e 234B     		ldr	r3, .L12+16
  82 0040 1A60     		str	r2, [r3]
ARM GAS  C:\Users\raymond\AppData\Local\Temp\cc1iXpfr.s 			page 9


 375:Generated_Source\PSoC4/I2C_1_I2C_MASTER.c **** 
 376:Generated_Source\PSoC4/I2C_1_I2C_MASTER.c ****             I2C_1_I2C_MASTER_GENERATE_START;
  83              		.loc 1 376 0
  84 0042 0222     		mov	r2, #2
  85 0044 224B     		ldr	r3, .L12+20
  86 0046 1A60     		str	r2, [r3]
  87              	.L5:
 377:Generated_Source\PSoC4/I2C_1_I2C_MASTER.c **** 
 378:Generated_Source\PSoC4/I2C_1_I2C_MASTER.c **** 
 379:Generated_Source\PSoC4/I2C_1_I2C_MASTER.c ****             while(!I2C_1_CHECK_INTR_MASTER(I2C_1_INTR_MASTER_I2C_ACK      |
  88              		.loc 1 379 0 discriminator 1
  89 0048 204B     		ldr	r3, .L12+16
  90 004a 1A68     		ldr	r2, [r3]
  91 004c 0823     		mov	r3, #8
  92 004e FF33     		add	r3, r3, #255
  93 0050 1A42     		tst	r2, r3
  94 0052 F9D0     		beq	.L5
 380:Generated_Source\PSoC4/I2C_1_I2C_MASTER.c ****                                                       I2C_1_INTR_MASTER_I2C_NACK     |
 381:Generated_Source\PSoC4/I2C_1_I2C_MASTER.c ****                                                       I2C_1_INTR_MASTER_I2C_ARB_LOST |
 382:Generated_Source\PSoC4/I2C_1_I2C_MASTER.c ****                                                       I2C_1_INTR_MASTER_I2C_BUS_ERROR))
 383:Generated_Source\PSoC4/I2C_1_I2C_MASTER.c ****             {
 384:Generated_Source\PSoC4/I2C_1_I2C_MASTER.c ****                 /*
 385:Generated_Source\PSoC4/I2C_1_I2C_MASTER.c ****                 * Write: wait until address has been transferred
 386:Generated_Source\PSoC4/I2C_1_I2C_MASTER.c ****                 * Read : wait until address has been transferred, data byte is going to RX FIFO as 
 387:Generated_Source\PSoC4/I2C_1_I2C_MASTER.c ****                 */
 388:Generated_Source\PSoC4/I2C_1_I2C_MASTER.c ****             }
 389:Generated_Source\PSoC4/I2C_1_I2C_MASTER.c **** 
 390:Generated_Source\PSoC4/I2C_1_I2C_MASTER.c ****             /* Check the results of the address phase */
 391:Generated_Source\PSoC4/I2C_1_I2C_MASTER.c ****             if(I2C_1_CHECK_INTR_MASTER(I2C_1_INTR_MASTER_I2C_ACK))
  95              		.loc 1 391 0
  96 0054 1D4B     		ldr	r3, .L12+16
  97 0056 1B68     		ldr	r3, [r3]
  98 0058 5B07     		lsl	r3, r3, #29
  99 005a 14D4     		bmi	.L10
 392:Generated_Source\PSoC4/I2C_1_I2C_MASTER.c ****             {
 393:Generated_Source\PSoC4/I2C_1_I2C_MASTER.c ****                 errStatus = I2C_1_I2C_MSTR_NO_ERROR;
 394:Generated_Source\PSoC4/I2C_1_I2C_MASTER.c ****             }
 395:Generated_Source\PSoC4/I2C_1_I2C_MASTER.c ****             else if(I2C_1_CHECK_INTR_MASTER(I2C_1_INTR_MASTER_I2C_NACK))
 100              		.loc 1 395 0
 101 005c 1B4B     		ldr	r3, .L12+16
 102 005e 1B68     		ldr	r3, [r3]
 103 0060 9B07     		lsl	r3, r3, #30
 104 0062 13D4     		bmi	.L11
 396:Generated_Source\PSoC4/I2C_1_I2C_MASTER.c ****             {
 397:Generated_Source\PSoC4/I2C_1_I2C_MASTER.c ****                 errStatus = I2C_1_I2C_MSTR_ERR_LB_NAK;
 398:Generated_Source\PSoC4/I2C_1_I2C_MASTER.c ****             }
 399:Generated_Source\PSoC4/I2C_1_I2C_MASTER.c ****             else if(I2C_1_CHECK_INTR_MASTER(I2C_1_INTR_MASTER_I2C_ARB_LOST))
 105              		.loc 1 399 0
 106 0064 194B     		ldr	r3, .L12+16
 107 0066 1B68     		ldr	r3, [r3]
 108 0068 DB07     		lsl	r3, r3, #31
 109 006a 05D5     		bpl	.L7
 400:Generated_Source\PSoC4/I2C_1_I2C_MASTER.c ****             {
 401:Generated_Source\PSoC4/I2C_1_I2C_MASTER.c ****                 I2C_1_state = I2C_1_I2C_FSM_IDLE;
 110              		.loc 1 401 0
 111 006c 1022     		mov	r2, #16
 112 006e 134B     		ldr	r3, .L12
ARM GAS  C:\Users\raymond\AppData\Local\Temp\cc1iXpfr.s 			page 10


 113 0070 1A70     		strb	r2, [r3]
 114              	.LVL6:
 402:Generated_Source\PSoC4/I2C_1_I2C_MASTER.c ****                              errStatus = I2C_1_I2C_MSTR_ERR_ARB_LOST;
 115              		.loc 1 402 0
 116 0072 0120     		mov	r0, #1
 117              	.LVL7:
 403:Generated_Source\PSoC4/I2C_1_I2C_MASTER.c ****                              resetIp   = I2C_1_I2C_RESET_ERROR;
 118              		.loc 1 403 0
 119 0074 0121     		mov	r1, #1
 120 0076 0BE0     		b	.L6
 121              	.LVL8:
 122              	.L7:
 404:Generated_Source\PSoC4/I2C_1_I2C_MASTER.c ****             }
 405:Generated_Source\PSoC4/I2C_1_I2C_MASTER.c ****             else /* I2C_1_INTR_MASTER_I2C_BUS_ERROR set is else condition */
 406:Generated_Source\PSoC4/I2C_1_I2C_MASTER.c ****             {
 407:Generated_Source\PSoC4/I2C_1_I2C_MASTER.c ****                 I2C_1_state = I2C_1_I2C_FSM_IDLE;
 123              		.loc 1 407 0
 124 0078 1022     		mov	r2, #16
 125 007a 104B     		ldr	r3, .L12
 126 007c 1A70     		strb	r2, [r3]
 127              	.LVL9:
 408:Generated_Source\PSoC4/I2C_1_I2C_MASTER.c ****                              errStatus = I2C_1_I2C_MSTR_ERR_BUS_ERR;
 128              		.loc 1 408 0
 129 007e 8020     		mov	r0, #128
 130              	.LVL10:
 131 0080 4000     		lsl	r0, r0, #1
 409:Generated_Source\PSoC4/I2C_1_I2C_MASTER.c ****                              resetIp   = I2C_1_I2C_RESET_ERROR;
 132              		.loc 1 409 0
 133 0082 0121     		mov	r1, #1
 134 0084 04E0     		b	.L6
 135              	.LVL11:
 136              	.L10:
 393:Generated_Source\PSoC4/I2C_1_I2C_MASTER.c ****             }
 137              		.loc 1 393 0
 138 0086 0020     		mov	r0, #0
 139              	.LVL12:
 339:Generated_Source\PSoC4/I2C_1_I2C_MASTER.c ****     errStatus = I2C_1_I2C_MSTR_NOT_READY;
 140              		.loc 1 339 0
 141 0088 0021     		mov	r1, #0
 142 008a 01E0     		b	.L6
 143              	.LVL13:
 144              	.L11:
 397:Generated_Source\PSoC4/I2C_1_I2C_MASTER.c ****             }
 145              		.loc 1 397 0
 146 008c 0220     		mov	r0, #2
 147              	.LVL14:
 339:Generated_Source\PSoC4/I2C_1_I2C_MASTER.c ****     errStatus = I2C_1_I2C_MSTR_NOT_READY;
 148              		.loc 1 339 0
 149 008e 0021     		mov	r1, #0
 150              	.LVL15:
 151              	.L6:
 410:Generated_Source\PSoC4/I2C_1_I2C_MASTER.c ****             }
 411:Generated_Source\PSoC4/I2C_1_I2C_MASTER.c **** 
 412:Generated_Source\PSoC4/I2C_1_I2C_MASTER.c ****             I2C_1_ClearMasterInterruptSource(I2C_1_INTR_MASTER_I2C_ACK      |
 152              		.loc 1 412 0
 153 0090 0822     		mov	r2, #8
 154 0092 FF32     		add	r2, r2, #255
ARM GAS  C:\Users\raymond\AppData\Local\Temp\cc1iXpfr.s 			page 11


 155 0094 0D4B     		ldr	r3, .L12+16
 156 0096 1A60     		str	r2, [r3]
 413:Generated_Source\PSoC4/I2C_1_I2C_MASTER.c ****                                                         I2C_1_INTR_MASTER_I2C_NACK     |
 414:Generated_Source\PSoC4/I2C_1_I2C_MASTER.c ****                                                         I2C_1_INTR_MASTER_I2C_ARB_LOST |
 415:Generated_Source\PSoC4/I2C_1_I2C_MASTER.c ****                                                         I2C_1_INTR_MASTER_I2C_BUS_ERROR);
 416:Generated_Source\PSoC4/I2C_1_I2C_MASTER.c **** 
 417:Generated_Source\PSoC4/I2C_1_I2C_MASTER.c ****             /* Reset block in case of: LOST_ARB or BUS_ERR */
 418:Generated_Source\PSoC4/I2C_1_I2C_MASTER.c ****             if(0u != resetIp)
 157              		.loc 1 418 0
 158 0098 0029     		cmp	r1, #0
 159 009a 0DD0     		beq	.L2
 419:Generated_Source\PSoC4/I2C_1_I2C_MASTER.c ****             {
 420:Generated_Source\PSoC4/I2C_1_I2C_MASTER.c ****                 I2C_1_SCB_SW_RESET;
 160              		.loc 1 420 0
 161 009c 0D4A     		ldr	r2, .L12+24
 162 009e 1368     		ldr	r3, [r2]
 163 00a0 5B00     		lsl	r3, r3, #1
 164 00a2 5B08     		lsr	r3, r3, #1
 165 00a4 1360     		str	r3, [r2]
 166 00a6 1368     		ldr	r3, [r2]
 167 00a8 8021     		mov	r1, #128
 168              	.LVL16:
 169 00aa 0906     		lsl	r1, r1, #24
 170 00ac 0B43     		orr	r3, r1
 171 00ae 1360     		str	r3, [r2]
 172 00b0 02E0     		b	.L2
 173              	.LVL17:
 174              	.L8:
 340:Generated_Source\PSoC4/I2C_1_I2C_MASTER.c **** 
 175              		.loc 1 340 0
 176 00b2 0420     		mov	r0, #4
 177              	.LVL18:
 178 00b4 00E0     		b	.L2
 179              	.LVL19:
 180              	.L9:
 348:Generated_Source\PSoC4/I2C_1_I2C_MASTER.c ****         }
 181              		.loc 1 348 0
 182 00b6 0820     		mov	r0, #8
 183              	.LVL20:
 184              	.L2:
 421:Generated_Source\PSoC4/I2C_1_I2C_MASTER.c ****             }
 422:Generated_Source\PSoC4/I2C_1_I2C_MASTER.c ****         }
 423:Generated_Source\PSoC4/I2C_1_I2C_MASTER.c ****     }
 424:Generated_Source\PSoC4/I2C_1_I2C_MASTER.c **** 
 425:Generated_Source\PSoC4/I2C_1_I2C_MASTER.c ****     return(errStatus);
 426:Generated_Source\PSoC4/I2C_1_I2C_MASTER.c **** }
 185              		.loc 1 426 0
 186              		@ sp needed
 187 00b8 38BD     		pop	{r3, r4, r5, pc}
 188              	.L13:
 189 00ba C046     		.align	2
 190              	.L12:
 191 00bc 00000000 		.word	I2C_1_state
 192 00c0 64000740 		.word	1074200676
 193 00c4 40020740 		.word	1074201152
 194 00c8 17030000 		.word	791
 195 00cc 000F0740 		.word	1074204416
ARM GAS  C:\Users\raymond\AppData\Local\Temp\cc1iXpfr.s 			page 12


 196 00d0 68000740 		.word	1074200680
 197 00d4 00000740 		.word	1074200576
 198              		.cfi_endproc
 199              	.LFE3:
 200              		.size	I2C_1_I2CMasterSendStart, .-I2C_1_I2CMasterSendStart
 201              		.section	.text.I2C_1_I2CMasterSendStop,"ax",%progbits
 202              		.align	2
 203              		.global	I2C_1_I2CMasterSendStop
 204              		.code	16
 205              		.thumb_func
 206              		.type	I2C_1_I2CMasterSendStop, %function
 207              	I2C_1_I2CMasterSendStop:
 208              	.LFB5:
 427:Generated_Source\PSoC4/I2C_1_I2C_MASTER.c **** 
 428:Generated_Source\PSoC4/I2C_1_I2C_MASTER.c **** 
 429:Generated_Source\PSoC4/I2C_1_I2C_MASTER.c **** /*******************************************************************************
 430:Generated_Source\PSoC4/I2C_1_I2C_MASTER.c **** * Function Name: I2C_1_I2CMasterSendRestart
 431:Generated_Source\PSoC4/I2C_1_I2C_MASTER.c **** ****************************************************************************//**
 432:Generated_Source\PSoC4/I2C_1_I2C_MASTER.c **** *
 433:Generated_Source\PSoC4/I2C_1_I2C_MASTER.c **** *  Generates Restart condition and sends slave address with read/write bit.
 434:Generated_Source\PSoC4/I2C_1_I2C_MASTER.c **** *  This function is blocking and does not return until start condition and
 435:Generated_Source\PSoC4/I2C_1_I2C_MASTER.c **** *  address are sent and ACK/NACK response is received or errors occurred.
 436:Generated_Source\PSoC4/I2C_1_I2C_MASTER.c **** *
 437:Generated_Source\PSoC4/I2C_1_I2C_MASTER.c **** * \param slaveAddress: Right justified 7-bit Slave address (valid range 
 438:Generated_Source\PSoC4/I2C_1_I2C_MASTER.c **** *   8 to 120).
 439:Generated_Source\PSoC4/I2C_1_I2C_MASTER.c **** * \param bitRnW: Direction of the following transfer. It is defined by 
 440:Generated_Source\PSoC4/I2C_1_I2C_MASTER.c **** *  read/write bit within address byte. 
 441:Generated_Source\PSoC4/I2C_1_I2C_MASTER.c **** *  See I2C_1_I2CMasterSendStart() function for constants.
 442:Generated_Source\PSoC4/I2C_1_I2C_MASTER.c **** *
 443:Generated_Source\PSoC4/I2C_1_I2C_MASTER.c **** * \return
 444:Generated_Source\PSoC4/I2C_1_I2C_MASTER.c **** *  Error status. 
 445:Generated_Source\PSoC4/I2C_1_I2C_MASTER.c **** *  See I2C_1_I2CMasterSendStart() function for constants.
 446:Generated_Source\PSoC4/I2C_1_I2C_MASTER.c **** *
 447:Generated_Source\PSoC4/I2C_1_I2C_MASTER.c **** * \sideeffect
 448:Generated_Source\PSoC4/I2C_1_I2C_MASTER.c **** *  A valid Start or ReStart condition must be generated before calling 
 449:Generated_Source\PSoC4/I2C_1_I2C_MASTER.c **** *  this function. This function does nothing if Start or ReStart conditions 
 450:Generated_Source\PSoC4/I2C_1_I2C_MASTER.c **** *  failed before this function was called.
 451:Generated_Source\PSoC4/I2C_1_I2C_MASTER.c **** *  For read transaction, at least one byte has to be read before ReStart 
 452:Generated_Source\PSoC4/I2C_1_I2C_MASTER.c **** *  generation.
 453:Generated_Source\PSoC4/I2C_1_I2C_MASTER.c **** *
 454:Generated_Source\PSoC4/I2C_1_I2C_MASTER.c **** * \globalvars
 455:Generated_Source\PSoC4/I2C_1_I2C_MASTER.c **** *  I2C_1_state - used to store current state of software FSM.
 456:Generated_Source\PSoC4/I2C_1_I2C_MASTER.c **** *
 457:Generated_Source\PSoC4/I2C_1_I2C_MASTER.c **** *******************************************************************************/
 458:Generated_Source\PSoC4/I2C_1_I2C_MASTER.c **** uint32 I2C_1_I2CMasterSendRestart(uint32 slaveAddress, uint32 bitRnW)
 459:Generated_Source\PSoC4/I2C_1_I2C_MASTER.c **** {
 460:Generated_Source\PSoC4/I2C_1_I2C_MASTER.c ****     uint32 resetIp;
 461:Generated_Source\PSoC4/I2C_1_I2C_MASTER.c ****     uint32 errStatus;
 462:Generated_Source\PSoC4/I2C_1_I2C_MASTER.c **** 
 463:Generated_Source\PSoC4/I2C_1_I2C_MASTER.c ****     resetIp   = 0u;
 464:Generated_Source\PSoC4/I2C_1_I2C_MASTER.c ****     errStatus = I2C_1_I2C_MSTR_NOT_READY;
 465:Generated_Source\PSoC4/I2C_1_I2C_MASTER.c **** 
 466:Generated_Source\PSoC4/I2C_1_I2C_MASTER.c ****     /* Check FSM state before generating ReStart condition */
 467:Generated_Source\PSoC4/I2C_1_I2C_MASTER.c ****     if(I2C_1_CHECK_I2C_MASTER_ACTIVE)
 468:Generated_Source\PSoC4/I2C_1_I2C_MASTER.c ****     {
 469:Generated_Source\PSoC4/I2C_1_I2C_MASTER.c ****         slaveAddress = I2C_1_GET_I2C_8BIT_ADDRESS(slaveAddress);
 470:Generated_Source\PSoC4/I2C_1_I2C_MASTER.c **** 
ARM GAS  C:\Users\raymond\AppData\Local\Temp\cc1iXpfr.s 			page 13


 471:Generated_Source\PSoC4/I2C_1_I2C_MASTER.c ****         if(0u == bitRnW) /* Write direction */
 472:Generated_Source\PSoC4/I2C_1_I2C_MASTER.c ****         {
 473:Generated_Source\PSoC4/I2C_1_I2C_MASTER.c ****             I2C_1_state = I2C_1_I2C_FSM_MSTR_WR_DATA;
 474:Generated_Source\PSoC4/I2C_1_I2C_MASTER.c ****         }
 475:Generated_Source\PSoC4/I2C_1_I2C_MASTER.c ****         else  /* Read direction */
 476:Generated_Source\PSoC4/I2C_1_I2C_MASTER.c ****         {
 477:Generated_Source\PSoC4/I2C_1_I2C_MASTER.c ****             I2C_1_state  = I2C_1_I2C_FSM_MSTR_RD_DATA;
 478:Generated_Source\PSoC4/I2C_1_I2C_MASTER.c ****                       slaveAddress |= I2C_1_I2C_READ_FLAG;
 479:Generated_Source\PSoC4/I2C_1_I2C_MASTER.c ****         }
 480:Generated_Source\PSoC4/I2C_1_I2C_MASTER.c **** 
 481:Generated_Source\PSoC4/I2C_1_I2C_MASTER.c ****         /* TX and RX FIFO have to be EMPTY */
 482:Generated_Source\PSoC4/I2C_1_I2C_MASTER.c **** 
 483:Generated_Source\PSoC4/I2C_1_I2C_MASTER.c ****         /* Clean-up interrupt status */
 484:Generated_Source\PSoC4/I2C_1_I2C_MASTER.c ****         I2C_1_ClearMasterInterruptSource(I2C_1_INTR_MASTER_ALL);
 485:Generated_Source\PSoC4/I2C_1_I2C_MASTER.c **** 
 486:Generated_Source\PSoC4/I2C_1_I2C_MASTER.c ****         /* A proper ReStart sequence is: generate ReStart, then put an address byte in the TX FIFO.
 487:Generated_Source\PSoC4/I2C_1_I2C_MASTER.c ****         * Otherwise the master treats the address in the TX FIFO as a data byte if a previous trans
 488:Generated_Source\PSoC4/I2C_1_I2C_MASTER.c ****         * The write transfer continues instead of ReStart.
 489:Generated_Source\PSoC4/I2C_1_I2C_MASTER.c ****         */
 490:Generated_Source\PSoC4/I2C_1_I2C_MASTER.c ****         I2C_1_I2C_MASTER_GENERATE_RESTART;
 491:Generated_Source\PSoC4/I2C_1_I2C_MASTER.c **** 
 492:Generated_Source\PSoC4/I2C_1_I2C_MASTER.c ****         while(I2C_1_CHECK_I2C_MASTER_CMD(I2C_1_I2C_MASTER_CMD_M_START))
 493:Generated_Source\PSoC4/I2C_1_I2C_MASTER.c ****         {
 494:Generated_Source\PSoC4/I2C_1_I2C_MASTER.c ****             /* Wait until ReStart has been generated */
 495:Generated_Source\PSoC4/I2C_1_I2C_MASTER.c ****         }
 496:Generated_Source\PSoC4/I2C_1_I2C_MASTER.c **** 
 497:Generated_Source\PSoC4/I2C_1_I2C_MASTER.c ****         /* Put address into TX FIFO */
 498:Generated_Source\PSoC4/I2C_1_I2C_MASTER.c ****         I2C_1_TX_FIFO_WR_REG = slaveAddress;
 499:Generated_Source\PSoC4/I2C_1_I2C_MASTER.c **** 
 500:Generated_Source\PSoC4/I2C_1_I2C_MASTER.c ****         /* Wait for address to be transferred */
 501:Generated_Source\PSoC4/I2C_1_I2C_MASTER.c ****         while(!I2C_1_CHECK_INTR_MASTER(I2C_1_INTR_MASTER_I2C_ACK      |
 502:Generated_Source\PSoC4/I2C_1_I2C_MASTER.c ****                                                   I2C_1_INTR_MASTER_I2C_NACK     |
 503:Generated_Source\PSoC4/I2C_1_I2C_MASTER.c ****                                                   I2C_1_INTR_MASTER_I2C_ARB_LOST |
 504:Generated_Source\PSoC4/I2C_1_I2C_MASTER.c ****                                                   I2C_1_INTR_MASTER_I2C_BUS_ERROR))
 505:Generated_Source\PSoC4/I2C_1_I2C_MASTER.c ****         {
 506:Generated_Source\PSoC4/I2C_1_I2C_MASTER.c ****             /* Wait until address has been transferred */
 507:Generated_Source\PSoC4/I2C_1_I2C_MASTER.c ****         }
 508:Generated_Source\PSoC4/I2C_1_I2C_MASTER.c **** 
 509:Generated_Source\PSoC4/I2C_1_I2C_MASTER.c ****         /* Check results of address phase */
 510:Generated_Source\PSoC4/I2C_1_I2C_MASTER.c ****         if(I2C_1_CHECK_INTR_MASTER(I2C_1_INTR_MASTER_I2C_ACK))
 511:Generated_Source\PSoC4/I2C_1_I2C_MASTER.c ****         {
 512:Generated_Source\PSoC4/I2C_1_I2C_MASTER.c ****             errStatus = I2C_1_I2C_MSTR_NO_ERROR;
 513:Generated_Source\PSoC4/I2C_1_I2C_MASTER.c ****         }
 514:Generated_Source\PSoC4/I2C_1_I2C_MASTER.c ****         else if(I2C_1_CHECK_INTR_MASTER(I2C_1_INTR_MASTER_I2C_NACK))
 515:Generated_Source\PSoC4/I2C_1_I2C_MASTER.c ****         {
 516:Generated_Source\PSoC4/I2C_1_I2C_MASTER.c ****              errStatus = I2C_1_I2C_MSTR_ERR_LB_NAK;
 517:Generated_Source\PSoC4/I2C_1_I2C_MASTER.c ****         }
 518:Generated_Source\PSoC4/I2C_1_I2C_MASTER.c ****         else if(I2C_1_CHECK_INTR_MASTER(I2C_1_INTR_MASTER_I2C_ARB_LOST))
 519:Generated_Source\PSoC4/I2C_1_I2C_MASTER.c ****         {
 520:Generated_Source\PSoC4/I2C_1_I2C_MASTER.c ****             I2C_1_state = I2C_1_I2C_FSM_IDLE;
 521:Generated_Source\PSoC4/I2C_1_I2C_MASTER.c ****                          errStatus = I2C_1_I2C_MSTR_ERR_ARB_LOST;
 522:Generated_Source\PSoC4/I2C_1_I2C_MASTER.c ****                          resetIp   = I2C_1_I2C_RESET_ERROR;
 523:Generated_Source\PSoC4/I2C_1_I2C_MASTER.c ****         }
 524:Generated_Source\PSoC4/I2C_1_I2C_MASTER.c ****         else /* I2C_1_INTR_MASTER_I2C_BUS_ERROR set is else condition */
 525:Generated_Source\PSoC4/I2C_1_I2C_MASTER.c ****         {
 526:Generated_Source\PSoC4/I2C_1_I2C_MASTER.c ****             I2C_1_state = I2C_1_I2C_FSM_IDLE;
 527:Generated_Source\PSoC4/I2C_1_I2C_MASTER.c ****                          errStatus = I2C_1_I2C_MSTR_ERR_BUS_ERR;
ARM GAS  C:\Users\raymond\AppData\Local\Temp\cc1iXpfr.s 			page 14


 528:Generated_Source\PSoC4/I2C_1_I2C_MASTER.c ****                          resetIp   = I2C_1_I2C_RESET_ERROR;
 529:Generated_Source\PSoC4/I2C_1_I2C_MASTER.c ****         }
 530:Generated_Source\PSoC4/I2C_1_I2C_MASTER.c **** 
 531:Generated_Source\PSoC4/I2C_1_I2C_MASTER.c ****         I2C_1_ClearMasterInterruptSource(I2C_1_INTR_MASTER_I2C_ACK      |
 532:Generated_Source\PSoC4/I2C_1_I2C_MASTER.c ****                                                     I2C_1_INTR_MASTER_I2C_NACK     |
 533:Generated_Source\PSoC4/I2C_1_I2C_MASTER.c ****                                                     I2C_1_INTR_MASTER_I2C_ARB_LOST |
 534:Generated_Source\PSoC4/I2C_1_I2C_MASTER.c ****                                                     I2C_1_INTR_MASTER_I2C_BUS_ERROR);
 535:Generated_Source\PSoC4/I2C_1_I2C_MASTER.c **** 
 536:Generated_Source\PSoC4/I2C_1_I2C_MASTER.c ****         /* Reset block in case of: LOST_ARB or BUS_ERR */
 537:Generated_Source\PSoC4/I2C_1_I2C_MASTER.c ****         if(0u != resetIp)
 538:Generated_Source\PSoC4/I2C_1_I2C_MASTER.c ****         {
 539:Generated_Source\PSoC4/I2C_1_I2C_MASTER.c ****             I2C_1_SCB_SW_RESET;
 540:Generated_Source\PSoC4/I2C_1_I2C_MASTER.c ****         }
 541:Generated_Source\PSoC4/I2C_1_I2C_MASTER.c ****     }
 542:Generated_Source\PSoC4/I2C_1_I2C_MASTER.c **** 
 543:Generated_Source\PSoC4/I2C_1_I2C_MASTER.c ****     return(errStatus);
 544:Generated_Source\PSoC4/I2C_1_I2C_MASTER.c **** }
 545:Generated_Source\PSoC4/I2C_1_I2C_MASTER.c **** 
 546:Generated_Source\PSoC4/I2C_1_I2C_MASTER.c **** 
 547:Generated_Source\PSoC4/I2C_1_I2C_MASTER.c **** /*******************************************************************************
 548:Generated_Source\PSoC4/I2C_1_I2C_MASTER.c **** * Function Name: I2C_1_I2CMasterSendStop
 549:Generated_Source\PSoC4/I2C_1_I2C_MASTER.c **** ****************************************************************************//**
 550:Generated_Source\PSoC4/I2C_1_I2C_MASTER.c **** *
 551:Generated_Source\PSoC4/I2C_1_I2C_MASTER.c **** *  Generates Stop condition on the bus. 
 552:Generated_Source\PSoC4/I2C_1_I2C_MASTER.c **** *  The NAK is generated before Stop in case of a read transaction.
 553:Generated_Source\PSoC4/I2C_1_I2C_MASTER.c **** *  At least one byte has to be read if a Start or ReStart condition with read 
 554:Generated_Source\PSoC4/I2C_1_I2C_MASTER.c **** *  direction was generated before.
 555:Generated_Source\PSoC4/I2C_1_I2C_MASTER.c **** *  This function is blocking and does not return until a Stop condition is 
 556:Generated_Source\PSoC4/I2C_1_I2C_MASTER.c **** *  generated or error occurred.
 557:Generated_Source\PSoC4/I2C_1_I2C_MASTER.c **** *
 558:Generated_Source\PSoC4/I2C_1_I2C_MASTER.c **** * \return
 559:Generated_Source\PSoC4/I2C_1_I2C_MASTER.c **** *  Error status.
 560:Generated_Source\PSoC4/I2C_1_I2C_MASTER.c **** *  See I2C_1_I2CMasterSendStart() function for constants.
 561:Generated_Source\PSoC4/I2C_1_I2C_MASTER.c **** *
 562:Generated_Source\PSoC4/I2C_1_I2C_MASTER.c **** * \sideeffect
 563:Generated_Source\PSoC4/I2C_1_I2C_MASTER.c **** *  A valid Start or ReStart condition must be generated before calling 
 564:Generated_Source\PSoC4/I2C_1_I2C_MASTER.c **** *  this function. This function does nothing if Start or ReStart conditions 
 565:Generated_Source\PSoC4/I2C_1_I2C_MASTER.c **** *  failed before this function was called.
 566:Generated_Source\PSoC4/I2C_1_I2C_MASTER.c **** *  For read transaction, at least one byte has to be read before ReStart 
 567:Generated_Source\PSoC4/I2C_1_I2C_MASTER.c **** *  generation.
 568:Generated_Source\PSoC4/I2C_1_I2C_MASTER.c **** *
 569:Generated_Source\PSoC4/I2C_1_I2C_MASTER.c **** * \globalvars
 570:Generated_Source\PSoC4/I2C_1_I2C_MASTER.c **** *  I2C_1_state - used to store current state of software FSM.
 571:Generated_Source\PSoC4/I2C_1_I2C_MASTER.c **** *
 572:Generated_Source\PSoC4/I2C_1_I2C_MASTER.c **** *******************************************************************************/
 573:Generated_Source\PSoC4/I2C_1_I2C_MASTER.c **** uint32 I2C_1_I2CMasterSendStop(void)
 574:Generated_Source\PSoC4/I2C_1_I2C_MASTER.c **** {
 209              		.loc 1 574 0
 210              		.cfi_startproc
 211              	.LVL21:
 575:Generated_Source\PSoC4/I2C_1_I2C_MASTER.c ****     uint32 resetIp;
 576:Generated_Source\PSoC4/I2C_1_I2C_MASTER.c ****     uint32 errStatus;
 577:Generated_Source\PSoC4/I2C_1_I2C_MASTER.c **** 
 578:Generated_Source\PSoC4/I2C_1_I2C_MASTER.c ****     resetIp   = 0u;
 579:Generated_Source\PSoC4/I2C_1_I2C_MASTER.c ****     errStatus = I2C_1_I2C_MSTR_NOT_READY;
 580:Generated_Source\PSoC4/I2C_1_I2C_MASTER.c **** 
 581:Generated_Source\PSoC4/I2C_1_I2C_MASTER.c ****     /* Check FSM state before generating Stop condition */
ARM GAS  C:\Users\raymond\AppData\Local\Temp\cc1iXpfr.s 			page 15


 582:Generated_Source\PSoC4/I2C_1_I2C_MASTER.c ****     if(I2C_1_CHECK_I2C_MASTER_ACTIVE)
 212              		.loc 1 582 0
 213 0000 1D4B     		ldr	r3, .L23
 214 0002 1B78     		ldrb	r3, [r3]
 215 0004 9B06     		lsl	r3, r3, #26
 216 0006 34D5     		bpl	.L19
 583:Generated_Source\PSoC4/I2C_1_I2C_MASTER.c ****     {
 584:Generated_Source\PSoC4/I2C_1_I2C_MASTER.c ****         /*
 585:Generated_Source\PSoC4/I2C_1_I2C_MASTER.c ****         * Write direction: generates Stop
 586:Generated_Source\PSoC4/I2C_1_I2C_MASTER.c ****         * Read  direction: generates NACK and Stop
 587:Generated_Source\PSoC4/I2C_1_I2C_MASTER.c ****         */
 588:Generated_Source\PSoC4/I2C_1_I2C_MASTER.c ****         I2C_1_I2C_MASTER_GENERATE_STOP;
 217              		.loc 1 588 0
 218 0008 1C4B     		ldr	r3, .L23+4
 219 000a 1B68     		ldr	r3, [r3]
 220 000c 9B06     		lsl	r3, r3, #26
 221 000e 01D5     		bpl	.L20
 222 0010 1822     		mov	r2, #24
 223 0012 00E0     		b	.L16
 224              	.L20:
 225 0014 1022     		mov	r2, #16
 226              	.L16:
 227              		.loc 1 588 0 is_stmt 0 discriminator 4
 228 0016 1A4B     		ldr	r3, .L23+8
 229 0018 1A60     		str	r2, [r3]
 230              	.L17:
 589:Generated_Source\PSoC4/I2C_1_I2C_MASTER.c **** 
 590:Generated_Source\PSoC4/I2C_1_I2C_MASTER.c ****         while(!I2C_1_CHECK_INTR_MASTER(I2C_1_INTR_MASTER_I2C_STOP     |
 231              		.loc 1 590 0 is_stmt 1 discriminator 1
 232 001a 1A4B     		ldr	r3, .L23+12
 233 001c 1A68     		ldr	r2, [r3]
 234 001e 1223     		mov	r3, #18
 235 0020 FF33     		add	r3, r3, #255
 236 0022 1A42     		tst	r2, r3
 237 0024 F9D0     		beq	.L17
 591:Generated_Source\PSoC4/I2C_1_I2C_MASTER.c ****                                                   I2C_1_INTR_MASTER_I2C_ARB_LOST |
 592:Generated_Source\PSoC4/I2C_1_I2C_MASTER.c ****                                                   I2C_1_INTR_MASTER_I2C_BUS_ERROR))
 593:Generated_Source\PSoC4/I2C_1_I2C_MASTER.c ****         {
 594:Generated_Source\PSoC4/I2C_1_I2C_MASTER.c ****             /* Wait until Stop has been generated */
 595:Generated_Source\PSoC4/I2C_1_I2C_MASTER.c ****         }
 596:Generated_Source\PSoC4/I2C_1_I2C_MASTER.c **** 
 597:Generated_Source\PSoC4/I2C_1_I2C_MASTER.c ****         /* Check Stop generation */
 598:Generated_Source\PSoC4/I2C_1_I2C_MASTER.c ****         if(I2C_1_CHECK_INTR_MASTER(I2C_1_INTR_MASTER_I2C_STOP))
 238              		.loc 1 598 0
 239 0026 174B     		ldr	r3, .L23+12
 240 0028 1B68     		ldr	r3, [r3]
 241 002a DB06     		lsl	r3, r3, #27
 242 002c 06D4     		bmi	.L21
 599:Generated_Source\PSoC4/I2C_1_I2C_MASTER.c ****         {
 600:Generated_Source\PSoC4/I2C_1_I2C_MASTER.c ****             errStatus = I2C_1_I2C_MSTR_NO_ERROR;
 601:Generated_Source\PSoC4/I2C_1_I2C_MASTER.c ****         }
 602:Generated_Source\PSoC4/I2C_1_I2C_MASTER.c ****         else if(I2C_1_CHECK_INTR_MASTER(I2C_1_INTR_MASTER_I2C_ARB_LOST))
 243              		.loc 1 602 0
 244 002e 154B     		ldr	r3, .L23+12
 245 0030 1B68     		ldr	r3, [r3]
 246 0032 DB07     		lsl	r3, r3, #31
 247 0034 05D5     		bpl	.L22
ARM GAS  C:\Users\raymond\AppData\Local\Temp\cc1iXpfr.s 			page 16


 603:Generated_Source\PSoC4/I2C_1_I2C_MASTER.c ****         {
 604:Generated_Source\PSoC4/I2C_1_I2C_MASTER.c ****             errStatus = I2C_1_I2C_MSTR_ERR_ARB_LOST;
 248              		.loc 1 604 0
 249 0036 0120     		mov	r0, #1
 605:Generated_Source\PSoC4/I2C_1_I2C_MASTER.c ****             resetIp   = I2C_1_I2C_RESET_ERROR;
 250              		.loc 1 605 0
 251 0038 0121     		mov	r1, #1
 252 003a 05E0     		b	.L18
 253              	.L21:
 600:Generated_Source\PSoC4/I2C_1_I2C_MASTER.c ****         }
 254              		.loc 1 600 0
 255 003c 0020     		mov	r0, #0
 578:Generated_Source\PSoC4/I2C_1_I2C_MASTER.c ****     errStatus = I2C_1_I2C_MSTR_NOT_READY;
 256              		.loc 1 578 0
 257 003e 0021     		mov	r1, #0
 258 0040 02E0     		b	.L18
 259              	.L22:
 606:Generated_Source\PSoC4/I2C_1_I2C_MASTER.c ****         }
 607:Generated_Source\PSoC4/I2C_1_I2C_MASTER.c ****         else /* I2C_1_INTR_MASTER_I2C_BUS_ERROR is set */
 608:Generated_Source\PSoC4/I2C_1_I2C_MASTER.c ****         {
 609:Generated_Source\PSoC4/I2C_1_I2C_MASTER.c ****             errStatus = I2C_1_I2C_MSTR_ERR_BUS_ERR;
 260              		.loc 1 609 0
 261 0042 8020     		mov	r0, #128
 262 0044 4000     		lsl	r0, r0, #1
 610:Generated_Source\PSoC4/I2C_1_I2C_MASTER.c ****             resetIp   = I2C_1_I2C_RESET_ERROR;
 263              		.loc 1 610 0
 264 0046 0121     		mov	r1, #1
 265              	.L18:
 266              	.LVL22:
 611:Generated_Source\PSoC4/I2C_1_I2C_MASTER.c ****         }
 612:Generated_Source\PSoC4/I2C_1_I2C_MASTER.c **** 
 613:Generated_Source\PSoC4/I2C_1_I2C_MASTER.c ****         I2C_1_ClearMasterInterruptSource(I2C_1_INTR_MASTER_I2C_STOP     |
 267              		.loc 1 613 0
 268 0048 1222     		mov	r2, #18
 269 004a FF32     		add	r2, r2, #255
 270 004c 0D4B     		ldr	r3, .L23+12
 271 004e 1A60     		str	r2, [r3]
 614:Generated_Source\PSoC4/I2C_1_I2C_MASTER.c ****                                                     I2C_1_INTR_MASTER_I2C_ARB_LOST |
 615:Generated_Source\PSoC4/I2C_1_I2C_MASTER.c ****                                                     I2C_1_INTR_MASTER_I2C_BUS_ERROR);
 616:Generated_Source\PSoC4/I2C_1_I2C_MASTER.c **** 
 617:Generated_Source\PSoC4/I2C_1_I2C_MASTER.c ****         I2C_1_state = I2C_1_I2C_FSM_IDLE;
 272              		.loc 1 617 0
 273 0050 023A     		sub	r2, r2, #2
 274 0052 FF3A     		sub	r2, r2, #255
 275 0054 084B     		ldr	r3, .L23
 276 0056 1A70     		strb	r2, [r3]
 618:Generated_Source\PSoC4/I2C_1_I2C_MASTER.c **** 
 619:Generated_Source\PSoC4/I2C_1_I2C_MASTER.c ****         /* Reset block in case of: LOST_ARB or BUS_ERR */
 620:Generated_Source\PSoC4/I2C_1_I2C_MASTER.c ****         if(0u != resetIp)
 277              		.loc 1 620 0
 278 0058 0029     		cmp	r1, #0
 279 005a 0BD0     		beq	.L15
 621:Generated_Source\PSoC4/I2C_1_I2C_MASTER.c ****         {
 622:Generated_Source\PSoC4/I2C_1_I2C_MASTER.c ****             I2C_1_SCB_SW_RESET;
 280              		.loc 1 622 0
 281 005c 0A4A     		ldr	r2, .L23+16
 282 005e 1368     		ldr	r3, [r2]
ARM GAS  C:\Users\raymond\AppData\Local\Temp\cc1iXpfr.s 			page 17


 283 0060 5B00     		lsl	r3, r3, #1
 284 0062 5B08     		lsr	r3, r3, #1
 285 0064 1360     		str	r3, [r2]
 286 0066 1368     		ldr	r3, [r2]
 287 0068 8021     		mov	r1, #128
 288              	.LVL23:
 289 006a 0906     		lsl	r1, r1, #24
 290 006c 0B43     		orr	r3, r1
 291 006e 1360     		str	r3, [r2]
 292 0070 00E0     		b	.L15
 293              	.LVL24:
 294              	.L19:
 579:Generated_Source\PSoC4/I2C_1_I2C_MASTER.c **** 
 295              		.loc 1 579 0
 296 0072 0420     		mov	r0, #4
 297              	.LVL25:
 298              	.L15:
 623:Generated_Source\PSoC4/I2C_1_I2C_MASTER.c ****         }
 624:Generated_Source\PSoC4/I2C_1_I2C_MASTER.c ****     }
 625:Generated_Source\PSoC4/I2C_1_I2C_MASTER.c **** 
 626:Generated_Source\PSoC4/I2C_1_I2C_MASTER.c ****     return(errStatus);
 627:Generated_Source\PSoC4/I2C_1_I2C_MASTER.c **** }
 299              		.loc 1 627 0
 300              		@ sp needed
 301 0074 7047     		bx	lr
 302              	.L24:
 303 0076 C046     		.align	2
 304              	.L23:
 305 0078 00000000 		.word	I2C_1_state
 306 007c 64000740 		.word	1074200676
 307 0080 68000740 		.word	1074200680
 308 0084 000F0740 		.word	1074204416
 309 0088 00000740 		.word	1074200576
 310              		.cfi_endproc
 311              	.LFE5:
 312              		.size	I2C_1_I2CMasterSendStop, .-I2C_1_I2CMasterSendStop
 313              		.section	.text.I2C_1_I2CMasterWriteByte,"ax",%progbits
 314              		.align	2
 315              		.global	I2C_1_I2CMasterWriteByte
 316              		.code	16
 317              		.thumb_func
 318              		.type	I2C_1_I2CMasterWriteByte, %function
 319              	I2C_1_I2CMasterWriteByte:
 320              	.LFB6:
 628:Generated_Source\PSoC4/I2C_1_I2C_MASTER.c **** 
 629:Generated_Source\PSoC4/I2C_1_I2C_MASTER.c **** 
 630:Generated_Source\PSoC4/I2C_1_I2C_MASTER.c **** /*******************************************************************************
 631:Generated_Source\PSoC4/I2C_1_I2C_MASTER.c **** * Function Name: I2C_1_I2CMasterWriteByte
 632:Generated_Source\PSoC4/I2C_1_I2C_MASTER.c **** ****************************************************************************//**
 633:Generated_Source\PSoC4/I2C_1_I2C_MASTER.c **** *
 634:Generated_Source\PSoC4/I2C_1_I2C_MASTER.c **** *  Sends one byte to a slave.
 635:Generated_Source\PSoC4/I2C_1_I2C_MASTER.c **** *  This function is blocking and does not return until byte is transmitted
 636:Generated_Source\PSoC4/I2C_1_I2C_MASTER.c **** *  or error occurred.
 637:Generated_Source\PSoC4/I2C_1_I2C_MASTER.c **** *
 638:Generated_Source\PSoC4/I2C_1_I2C_MASTER.c **** * \param data: The data byte to send to the slave.
 639:Generated_Source\PSoC4/I2C_1_I2C_MASTER.c **** *
 640:Generated_Source\PSoC4/I2C_1_I2C_MASTER.c **** * \return
ARM GAS  C:\Users\raymond\AppData\Local\Temp\cc1iXpfr.s 			page 18


 641:Generated_Source\PSoC4/I2C_1_I2C_MASTER.c **** *  Error status.
 642:Generated_Source\PSoC4/I2C_1_I2C_MASTER.c **** *  See I2C_1_I2CMasterSendStart() function for constants.
 643:Generated_Source\PSoC4/I2C_1_I2C_MASTER.c **** *
 644:Generated_Source\PSoC4/I2C_1_I2C_MASTER.c **** * \sideeffect
 645:Generated_Source\PSoC4/I2C_1_I2C_MASTER.c **** *  A valid Start or ReStart condition must be generated before calling
 646:Generated_Source\PSoC4/I2C_1_I2C_MASTER.c **** *  this function. This function does nothing if Start or ReStart condition
 647:Generated_Source\PSoC4/I2C_1_I2C_MASTER.c **** *  failed before this function was called.
 648:Generated_Source\PSoC4/I2C_1_I2C_MASTER.c **** *
 649:Generated_Source\PSoC4/I2C_1_I2C_MASTER.c **** * \globalvars
 650:Generated_Source\PSoC4/I2C_1_I2C_MASTER.c **** *  I2C_1_state - used to store current state of software FSM.
 651:Generated_Source\PSoC4/I2C_1_I2C_MASTER.c **** *
 652:Generated_Source\PSoC4/I2C_1_I2C_MASTER.c **** *******************************************************************************/
 653:Generated_Source\PSoC4/I2C_1_I2C_MASTER.c **** uint32 I2C_1_I2CMasterWriteByte(uint32 theByte)
 654:Generated_Source\PSoC4/I2C_1_I2C_MASTER.c **** {
 321              		.loc 1 654 0
 322              		.cfi_startproc
 323              	.LVL26:
 655:Generated_Source\PSoC4/I2C_1_I2C_MASTER.c ****     uint32 resetIp;
 656:Generated_Source\PSoC4/I2C_1_I2C_MASTER.c ****     uint32 errStatus;
 657:Generated_Source\PSoC4/I2C_1_I2C_MASTER.c **** 
 658:Generated_Source\PSoC4/I2C_1_I2C_MASTER.c ****     resetIp   = 0u;
 659:Generated_Source\PSoC4/I2C_1_I2C_MASTER.c ****     errStatus = I2C_1_I2C_MSTR_NOT_READY;
 660:Generated_Source\PSoC4/I2C_1_I2C_MASTER.c **** 
 661:Generated_Source\PSoC4/I2C_1_I2C_MASTER.c ****     /* Check FSM state before write byte */
 662:Generated_Source\PSoC4/I2C_1_I2C_MASTER.c ****     if(I2C_1_CHECK_I2C_MASTER_ACTIVE)
 324              		.loc 1 662 0
 325 0000 214B     		ldr	r3, .L33
 326 0002 1B78     		ldrb	r3, [r3]
 327 0004 9B06     		lsl	r3, r3, #26
 328 0006 3CD5     		bpl	.L32
 663:Generated_Source\PSoC4/I2C_1_I2C_MASTER.c ****     {
 664:Generated_Source\PSoC4/I2C_1_I2C_MASTER.c ****         I2C_1_TX_FIFO_WR_REG = theByte;
 329              		.loc 1 664 0
 330 0008 204B     		ldr	r3, .L33+4
 331 000a 1860     		str	r0, [r3]
 332              	.L27:
 665:Generated_Source\PSoC4/I2C_1_I2C_MASTER.c **** 
 666:Generated_Source\PSoC4/I2C_1_I2C_MASTER.c ****         while(!I2C_1_CHECK_INTR_MASTER(I2C_1_INTR_MASTER_I2C_ACK      |
 333              		.loc 1 666 0 discriminator 1
 334 000c 204B     		ldr	r3, .L33+8
 335 000e 1A68     		ldr	r2, [r3]
 336 0010 0823     		mov	r3, #8
 337 0012 FF33     		add	r3, r3, #255
 338 0014 1A42     		tst	r2, r3
 339 0016 F9D0     		beq	.L27
 667:Generated_Source\PSoC4/I2C_1_I2C_MASTER.c ****                                                   I2C_1_INTR_MASTER_I2C_NACK     |
 668:Generated_Source\PSoC4/I2C_1_I2C_MASTER.c ****                                                   I2C_1_INTR_MASTER_I2C_ARB_LOST |
 669:Generated_Source\PSoC4/I2C_1_I2C_MASTER.c ****                                                   I2C_1_INTR_MASTER_I2C_BUS_ERROR))
 670:Generated_Source\PSoC4/I2C_1_I2C_MASTER.c ****         {
 671:Generated_Source\PSoC4/I2C_1_I2C_MASTER.c ****             /* Wait until byte has been transferred */
 672:Generated_Source\PSoC4/I2C_1_I2C_MASTER.c ****         }
 673:Generated_Source\PSoC4/I2C_1_I2C_MASTER.c **** 
 674:Generated_Source\PSoC4/I2C_1_I2C_MASTER.c ****         /* Check results after byte was sent */
 675:Generated_Source\PSoC4/I2C_1_I2C_MASTER.c ****         if(I2C_1_CHECK_INTR_MASTER(I2C_1_INTR_MASTER_I2C_ACK))
 340              		.loc 1 675 0
 341 0018 1D4B     		ldr	r3, .L33+8
 342 001a 1B68     		ldr	r3, [r3]
ARM GAS  C:\Users\raymond\AppData\Local\Temp\cc1iXpfr.s 			page 19


 343 001c 5B07     		lsl	r3, r3, #29
 344 001e 05D5     		bpl	.L28
 676:Generated_Source\PSoC4/I2C_1_I2C_MASTER.c ****         {
 677:Generated_Source\PSoC4/I2C_1_I2C_MASTER.c ****             I2C_1_state = I2C_1_I2C_FSM_MSTR_HALT;
 345              		.loc 1 677 0
 346 0020 6022     		mov	r2, #96
 347 0022 194B     		ldr	r3, .L33
 348 0024 1A70     		strb	r2, [r3]
 349              	.LVL27:
 678:Generated_Source\PSoC4/I2C_1_I2C_MASTER.c ****                          errStatus = I2C_1_I2C_MSTR_NO_ERROR;
 350              		.loc 1 678 0
 351 0026 0020     		mov	r0, #0
 352              	.LVL28:
 658:Generated_Source\PSoC4/I2C_1_I2C_MASTER.c ****     errStatus = I2C_1_I2C_MSTR_NOT_READY;
 353              		.loc 1 658 0
 354 0028 0021     		mov	r1, #0
 355 002a 19E0     		b	.L29
 356              	.LVL29:
 357              	.L28:
 679:Generated_Source\PSoC4/I2C_1_I2C_MASTER.c ****         }
 680:Generated_Source\PSoC4/I2C_1_I2C_MASTER.c ****         else if(I2C_1_CHECK_INTR_MASTER(I2C_1_INTR_MASTER_I2C_NACK))
 358              		.loc 1 680 0
 359 002c 184B     		ldr	r3, .L33+8
 360 002e 1B68     		ldr	r3, [r3]
 361 0030 9B07     		lsl	r3, r3, #30
 362 0032 05D5     		bpl	.L30
 681:Generated_Source\PSoC4/I2C_1_I2C_MASTER.c ****         {
 682:Generated_Source\PSoC4/I2C_1_I2C_MASTER.c ****             I2C_1_state = I2C_1_I2C_FSM_MSTR_HALT;
 363              		.loc 1 682 0
 364 0034 6022     		mov	r2, #96
 365 0036 144B     		ldr	r3, .L33
 366 0038 1A70     		strb	r2, [r3]
 367              	.LVL30:
 683:Generated_Source\PSoC4/I2C_1_I2C_MASTER.c ****                          errStatus = I2C_1_I2C_MSTR_ERR_LB_NAK;
 368              		.loc 1 683 0
 369 003a 0220     		mov	r0, #2
 370              	.LVL31:
 658:Generated_Source\PSoC4/I2C_1_I2C_MASTER.c ****     errStatus = I2C_1_I2C_MSTR_NOT_READY;
 371              		.loc 1 658 0
 372 003c 0021     		mov	r1, #0
 373 003e 0FE0     		b	.L29
 374              	.LVL32:
 375              	.L30:
 684:Generated_Source\PSoC4/I2C_1_I2C_MASTER.c ****         }
 685:Generated_Source\PSoC4/I2C_1_I2C_MASTER.c ****         else if(I2C_1_CHECK_INTR_MASTER(I2C_1_INTR_MASTER_I2C_ARB_LOST))
 376              		.loc 1 685 0
 377 0040 134B     		ldr	r3, .L33+8
 378 0042 1B68     		ldr	r3, [r3]
 379 0044 DB07     		lsl	r3, r3, #31
 380 0046 05D5     		bpl	.L31
 686:Generated_Source\PSoC4/I2C_1_I2C_MASTER.c ****         {
 687:Generated_Source\PSoC4/I2C_1_I2C_MASTER.c ****             I2C_1_state = I2C_1_I2C_FSM_IDLE;
 381              		.loc 1 687 0
 382 0048 1022     		mov	r2, #16
 383 004a 0F4B     		ldr	r3, .L33
 384 004c 1A70     		strb	r2, [r3]
 385              	.LVL33:
ARM GAS  C:\Users\raymond\AppData\Local\Temp\cc1iXpfr.s 			page 20


 688:Generated_Source\PSoC4/I2C_1_I2C_MASTER.c ****                          errStatus = I2C_1_I2C_MSTR_ERR_ARB_LOST;
 386              		.loc 1 688 0
 387 004e 0120     		mov	r0, #1
 388              	.LVL34:
 689:Generated_Source\PSoC4/I2C_1_I2C_MASTER.c ****                          resetIp   = I2C_1_I2C_RESET_ERROR;
 389              		.loc 1 689 0
 390 0050 0121     		mov	r1, #1
 391 0052 05E0     		b	.L29
 392              	.LVL35:
 393              	.L31:
 690:Generated_Source\PSoC4/I2C_1_I2C_MASTER.c ****         }
 691:Generated_Source\PSoC4/I2C_1_I2C_MASTER.c ****         else /* I2C_1_INTR_MASTER_I2C_BUS_ERROR set is */
 692:Generated_Source\PSoC4/I2C_1_I2C_MASTER.c ****         {
 693:Generated_Source\PSoC4/I2C_1_I2C_MASTER.c ****             I2C_1_state = I2C_1_I2C_FSM_IDLE;
 394              		.loc 1 693 0
 395 0054 1022     		mov	r2, #16
 396 0056 0C4B     		ldr	r3, .L33
 397 0058 1A70     		strb	r2, [r3]
 398              	.LVL36:
 694:Generated_Source\PSoC4/I2C_1_I2C_MASTER.c ****                          errStatus = I2C_1_I2C_MSTR_ERR_BUS_ERR;
 399              		.loc 1 694 0
 400 005a 8020     		mov	r0, #128
 401              	.LVL37:
 402 005c 4000     		lsl	r0, r0, #1
 695:Generated_Source\PSoC4/I2C_1_I2C_MASTER.c ****                          resetIp   = I2C_1_I2C_RESET_ERROR;
 403              		.loc 1 695 0
 404 005e 0121     		mov	r1, #1
 405              	.LVL38:
 406              	.L29:
 696:Generated_Source\PSoC4/I2C_1_I2C_MASTER.c ****         }
 697:Generated_Source\PSoC4/I2C_1_I2C_MASTER.c **** 
 698:Generated_Source\PSoC4/I2C_1_I2C_MASTER.c ****         I2C_1_ClearMasterInterruptSource(I2C_1_INTR_MASTER_I2C_ACK      |
 407              		.loc 1 698 0
 408 0060 0822     		mov	r2, #8
 409 0062 FF32     		add	r2, r2, #255
 410 0064 0A4B     		ldr	r3, .L33+8
 411 0066 1A60     		str	r2, [r3]
 699:Generated_Source\PSoC4/I2C_1_I2C_MASTER.c ****                                                     I2C_1_INTR_MASTER_I2C_NACK     |
 700:Generated_Source\PSoC4/I2C_1_I2C_MASTER.c ****                                                     I2C_1_INTR_MASTER_I2C_ARB_LOST |
 701:Generated_Source\PSoC4/I2C_1_I2C_MASTER.c ****                                                     I2C_1_INTR_MASTER_I2C_BUS_ERROR);
 702:Generated_Source\PSoC4/I2C_1_I2C_MASTER.c **** 
 703:Generated_Source\PSoC4/I2C_1_I2C_MASTER.c ****         /* Reset block in case of: LOST_ARB or BUS_ERR */
 704:Generated_Source\PSoC4/I2C_1_I2C_MASTER.c ****         if(0u != resetIp)
 412              		.loc 1 704 0
 413 0068 0029     		cmp	r1, #0
 414 006a 0BD0     		beq	.L26
 705:Generated_Source\PSoC4/I2C_1_I2C_MASTER.c ****         {
 706:Generated_Source\PSoC4/I2C_1_I2C_MASTER.c ****             I2C_1_SCB_SW_RESET;
 415              		.loc 1 706 0
 416 006c 094A     		ldr	r2, .L33+12
 417 006e 1368     		ldr	r3, [r2]
 418 0070 5B00     		lsl	r3, r3, #1
 419 0072 5B08     		lsr	r3, r3, #1
 420 0074 1360     		str	r3, [r2]
 421 0076 1368     		ldr	r3, [r2]
 422 0078 8021     		mov	r1, #128
 423              	.LVL39:
ARM GAS  C:\Users\raymond\AppData\Local\Temp\cc1iXpfr.s 			page 21


 424 007a 0906     		lsl	r1, r1, #24
 425 007c 0B43     		orr	r3, r1
 426 007e 1360     		str	r3, [r2]
 427 0080 00E0     		b	.L26
 428              	.LVL40:
 429              	.L32:
 659:Generated_Source\PSoC4/I2C_1_I2C_MASTER.c **** 
 430              		.loc 1 659 0
 431 0082 0420     		mov	r0, #4
 432              	.LVL41:
 433              	.L26:
 707:Generated_Source\PSoC4/I2C_1_I2C_MASTER.c ****         }
 708:Generated_Source\PSoC4/I2C_1_I2C_MASTER.c ****     }
 709:Generated_Source\PSoC4/I2C_1_I2C_MASTER.c **** 
 710:Generated_Source\PSoC4/I2C_1_I2C_MASTER.c ****     return(errStatus);
 711:Generated_Source\PSoC4/I2C_1_I2C_MASTER.c **** }
 434              		.loc 1 711 0
 435              		@ sp needed
 436 0084 7047     		bx	lr
 437              	.L34:
 438 0086 C046     		.align	2
 439              	.L33:
 440 0088 00000000 		.word	I2C_1_state
 441 008c 40020740 		.word	1074201152
 442 0090 000F0740 		.word	1074204416
 443 0094 00000740 		.word	1074200576
 444              		.cfi_endproc
 445              	.LFE6:
 446              		.size	I2C_1_I2CMasterWriteByte, .-I2C_1_I2CMasterWriteByte
 447              		.section	.text.I2C_1_I2CMasterReadByte,"ax",%progbits
 448              		.align	2
 449              		.global	I2C_1_I2CMasterReadByte
 450              		.code	16
 451              		.thumb_func
 452              		.type	I2C_1_I2CMasterReadByte, %function
 453              	I2C_1_I2CMasterReadByte:
 454              	.LFB7:
 712:Generated_Source\PSoC4/I2C_1_I2C_MASTER.c **** 
 713:Generated_Source\PSoC4/I2C_1_I2C_MASTER.c **** 
 714:Generated_Source\PSoC4/I2C_1_I2C_MASTER.c **** /*******************************************************************************
 715:Generated_Source\PSoC4/I2C_1_I2C_MASTER.c **** * Function Name: I2C_1_I2CMasterReadByte
 716:Generated_Source\PSoC4/I2C_1_I2C_MASTER.c **** ****************************************************************************//**
 717:Generated_Source\PSoC4/I2C_1_I2C_MASTER.c **** *
 718:Generated_Source\PSoC4/I2C_1_I2C_MASTER.c **** *  Reads one byte from a slave and generates ACK or prepares to generate NAK. 
 719:Generated_Source\PSoC4/I2C_1_I2C_MASTER.c **** *  The NAK will be generated before Stop or ReStart condition by 
 720:Generated_Source\PSoC4/I2C_1_I2C_MASTER.c **** *  I2C_1_I2CMasterSendStop() or 
 721:Generated_Source\PSoC4/I2C_1_I2C_MASTER.c **** *  I2C_1_I2CMasterSendRestart() function appropriately.
 722:Generated_Source\PSoC4/I2C_1_I2C_MASTER.c **** *  This function is blocking. It does not return until a byte is received or 
 723:Generated_Source\PSoC4/I2C_1_I2C_MASTER.c **** *  an error occurs.
 724:Generated_Source\PSoC4/I2C_1_I2C_MASTER.c **** *
 725:Generated_Source\PSoC4/I2C_1_I2C_MASTER.c **** * \param ackNack: Response to received byte.
 726:Generated_Source\PSoC4/I2C_1_I2C_MASTER.c **** *  - I2C_1_I2C_ACK_DATA - Generates ACK. 
 727:Generated_Source\PSoC4/I2C_1_I2C_MASTER.c **** *     The master notifies slave that transfer continues.
 728:Generated_Source\PSoC4/I2C_1_I2C_MASTER.c **** *  - I2C_1_I2C_NAK_DATA - Prepares to generate NAK.
 729:Generated_Source\PSoC4/I2C_1_I2C_MASTER.c **** *     The master will notify slave that transfer is completed.
 730:Generated_Source\PSoC4/I2C_1_I2C_MASTER.c **** *
 731:Generated_Source\PSoC4/I2C_1_I2C_MASTER.c **** * \return
ARM GAS  C:\Users\raymond\AppData\Local\Temp\cc1iXpfr.s 			page 22


 732:Generated_Source\PSoC4/I2C_1_I2C_MASTER.c **** *  Byte read from the slave. In case of error the MSB of returned data 
 733:Generated_Source\PSoC4/I2C_1_I2C_MASTER.c **** *  is set to 1.
 734:Generated_Source\PSoC4/I2C_1_I2C_MASTER.c **** *
 735:Generated_Source\PSoC4/I2C_1_I2C_MASTER.c **** * \sideeffect
 736:Generated_Source\PSoC4/I2C_1_I2C_MASTER.c **** *  A valid Start or ReStart condition must be generated before calling
 737:Generated_Source\PSoC4/I2C_1_I2C_MASTER.c **** *  this function. This function does nothing if Start or ReStart condition
 738:Generated_Source\PSoC4/I2C_1_I2C_MASTER.c **** *  failed before this function was called.
 739:Generated_Source\PSoC4/I2C_1_I2C_MASTER.c **** *
 740:Generated_Source\PSoC4/I2C_1_I2C_MASTER.c **** * \globalvars
 741:Generated_Source\PSoC4/I2C_1_I2C_MASTER.c **** *  I2C_1_state - used to store current state of software FSM.
 742:Generated_Source\PSoC4/I2C_1_I2C_MASTER.c **** *
 743:Generated_Source\PSoC4/I2C_1_I2C_MASTER.c **** *******************************************************************************/
 744:Generated_Source\PSoC4/I2C_1_I2C_MASTER.c **** uint32 I2C_1_I2CMasterReadByte(uint32 ackNack)
 745:Generated_Source\PSoC4/I2C_1_I2C_MASTER.c **** {
 455              		.loc 1 745 0
 456              		.cfi_startproc
 457              	.LVL42:
 458 0000 011C     		mov	r1, r0
 459              	.LVL43:
 746:Generated_Source\PSoC4/I2C_1_I2C_MASTER.c ****     uint32 theByte;
 747:Generated_Source\PSoC4/I2C_1_I2C_MASTER.c **** 
 748:Generated_Source\PSoC4/I2C_1_I2C_MASTER.c ****     /* Return invalid byte in case BUS_ERR happen during receiving */
 749:Generated_Source\PSoC4/I2C_1_I2C_MASTER.c ****     theByte = I2C_1_I2C_INVALID_BYTE;
 750:Generated_Source\PSoC4/I2C_1_I2C_MASTER.c **** 
 751:Generated_Source\PSoC4/I2C_1_I2C_MASTER.c ****     /* Check FSM state before read byte */
 752:Generated_Source\PSoC4/I2C_1_I2C_MASTER.c ****     if(I2C_1_CHECK_I2C_MASTER_ACTIVE)
 460              		.loc 1 752 0
 461 0002 194B     		ldr	r3, .L42
 462 0004 1B78     		ldrb	r3, [r3]
 463 0006 9B06     		lsl	r3, r3, #26
 464 0008 2BD5     		bpl	.L41
 465              	.L38:
 753:Generated_Source\PSoC4/I2C_1_I2C_MASTER.c ****     {
 754:Generated_Source\PSoC4/I2C_1_I2C_MASTER.c ****         while((!I2C_1_CHECK_INTR_RX(I2C_1_INTR_RX_NOT_EMPTY)) &&
 466              		.loc 1 754 0 discriminator 2
 467 000a 184B     		ldr	r3, .L42+4
 468 000c 1B68     		ldr	r3, [r3]
 469 000e 5B07     		lsl	r3, r3, #29
 470 0010 05D4     		bmi	.L37
 755:Generated_Source\PSoC4/I2C_1_I2C_MASTER.c ****               (!I2C_1_CHECK_INTR_MASTER(I2C_1_INTR_MASTER_I2C_ARB_LOST |
 471              		.loc 1 755 0 discriminator 1
 472 0012 174B     		ldr	r3, .L42+8
 473 0014 1A68     		ldr	r2, [r3]
 754:Generated_Source\PSoC4/I2C_1_I2C_MASTER.c ****               (!I2C_1_CHECK_INTR_MASTER(I2C_1_INTR_MASTER_I2C_ARB_LOST |
 474              		.loc 1 754 0 discriminator 1
 475 0016 0223     		mov	r3, #2
 476 0018 FF33     		add	r3, r3, #255
 477 001a 1A42     		tst	r2, r3
 478 001c F5D0     		beq	.L38
 479              	.L37:
 756:Generated_Source\PSoC4/I2C_1_I2C_MASTER.c ****                                                   I2C_1_INTR_MASTER_I2C_BUS_ERROR)))
 757:Generated_Source\PSoC4/I2C_1_I2C_MASTER.c ****         {
 758:Generated_Source\PSoC4/I2C_1_I2C_MASTER.c ****             /* Wait until byte has been received */
 759:Generated_Source\PSoC4/I2C_1_I2C_MASTER.c ****         }
 760:Generated_Source\PSoC4/I2C_1_I2C_MASTER.c **** 
 761:Generated_Source\PSoC4/I2C_1_I2C_MASTER.c ****         /* Check the results after the byte was sent */
 762:Generated_Source\PSoC4/I2C_1_I2C_MASTER.c ****         if(I2C_1_CHECK_INTR_RX(I2C_1_INTR_RX_NOT_EMPTY))
ARM GAS  C:\Users\raymond\AppData\Local\Temp\cc1iXpfr.s 			page 23


 480              		.loc 1 762 0
 481 001e 134B     		ldr	r3, .L42+4
 482 0020 1B68     		ldr	r3, [r3]
 483 0022 5B07     		lsl	r3, r3, #29
 484 0024 0DD5     		bpl	.L39
 763:Generated_Source\PSoC4/I2C_1_I2C_MASTER.c ****         {
 764:Generated_Source\PSoC4/I2C_1_I2C_MASTER.c ****             theByte = I2C_1_RX_FIFO_RD_REG;
 485              		.loc 1 764 0
 486 0026 134B     		ldr	r3, .L42+12
 487 0028 1868     		ldr	r0, [r3]
 488              	.LVL44:
 765:Generated_Source\PSoC4/I2C_1_I2C_MASTER.c **** 
 766:Generated_Source\PSoC4/I2C_1_I2C_MASTER.c ****             I2C_1_ClearRxInterruptSource(I2C_1_INTR_RX_NOT_EMPTY);
 489              		.loc 1 766 0
 490 002a 0422     		mov	r2, #4
 491 002c 0F4B     		ldr	r3, .L42+4
 492 002e 1A60     		str	r2, [r3]
 767:Generated_Source\PSoC4/I2C_1_I2C_MASTER.c **** 
 768:Generated_Source\PSoC4/I2C_1_I2C_MASTER.c ****             if(0u == ackNack)
 493              		.loc 1 768 0
 494 0030 0029     		cmp	r1, #0
 495 0032 02D1     		bne	.L40
 769:Generated_Source\PSoC4/I2C_1_I2C_MASTER.c ****             {
 770:Generated_Source\PSoC4/I2C_1_I2C_MASTER.c ****                 I2C_1_I2C_MASTER_GENERATE_ACK;
 496              		.loc 1 770 0
 497 0034 104B     		ldr	r3, .L42+16
 498 0036 1A60     		str	r2, [r3]
 499 0038 15E0     		b	.L36
 500              	.L40:
 771:Generated_Source\PSoC4/I2C_1_I2C_MASTER.c ****             }
 772:Generated_Source\PSoC4/I2C_1_I2C_MASTER.c ****             else
 773:Generated_Source\PSoC4/I2C_1_I2C_MASTER.c ****             {
 774:Generated_Source\PSoC4/I2C_1_I2C_MASTER.c ****                 /* NACK is generated by Stop or ReStart command */
 775:Generated_Source\PSoC4/I2C_1_I2C_MASTER.c ****                 I2C_1_state = I2C_1_I2C_FSM_MSTR_HALT;
 501              		.loc 1 775 0
 502 003a 6022     		mov	r2, #96
 503 003c 0A4B     		ldr	r3, .L42
 504 003e 1A70     		strb	r2, [r3]
 505 0040 11E0     		b	.L36
 506              	.LVL45:
 507              	.L39:
 776:Generated_Source\PSoC4/I2C_1_I2C_MASTER.c ****             }
 777:Generated_Source\PSoC4/I2C_1_I2C_MASTER.c ****         }
 778:Generated_Source\PSoC4/I2C_1_I2C_MASTER.c ****         else
 779:Generated_Source\PSoC4/I2C_1_I2C_MASTER.c ****         {
 780:Generated_Source\PSoC4/I2C_1_I2C_MASTER.c ****             I2C_1_ClearMasterInterruptSource(I2C_1_INTR_MASTER_ALL);
 508              		.loc 1 780 0
 509 0042 0E4A     		ldr	r2, .L42+20
 510 0044 0A4B     		ldr	r3, .L42+8
 511 0046 1A60     		str	r2, [r3]
 781:Generated_Source\PSoC4/I2C_1_I2C_MASTER.c **** 
 782:Generated_Source\PSoC4/I2C_1_I2C_MASTER.c ****             /* Reset block in case of: LOST_ARB or BUS_ERR */
 783:Generated_Source\PSoC4/I2C_1_I2C_MASTER.c ****             I2C_1_SCB_SW_RESET;
 512              		.loc 1 783 0
 513 0048 0D4A     		ldr	r2, .L42+24
 514 004a 1368     		ldr	r3, [r2]
 515 004c 5B00     		lsl	r3, r3, #1
ARM GAS  C:\Users\raymond\AppData\Local\Temp\cc1iXpfr.s 			page 24


 516 004e 5B08     		lsr	r3, r3, #1
 517 0050 1360     		str	r3, [r2]
 518 0052 1368     		ldr	r3, [r2]
 519 0054 8021     		mov	r1, #128
 520 0056 0906     		lsl	r1, r1, #24
 521 0058 0B43     		orr	r3, r1
 522 005a 1360     		str	r3, [r2]
 749:Generated_Source\PSoC4/I2C_1_I2C_MASTER.c **** 
 523              		.loc 1 749 0
 524 005c 0120     		mov	r0, #1
 525              	.LVL46:
 526 005e 4042     		neg	r0, r0
 527 0060 01E0     		b	.L36
 528              	.LVL47:
 529              	.L41:
 530 0062 0120     		mov	r0, #1
 531              	.LVL48:
 532 0064 4042     		neg	r0, r0
 533              	.LVL49:
 534              	.L36:
 784:Generated_Source\PSoC4/I2C_1_I2C_MASTER.c ****         }
 785:Generated_Source\PSoC4/I2C_1_I2C_MASTER.c ****     }
 786:Generated_Source\PSoC4/I2C_1_I2C_MASTER.c **** 
 787:Generated_Source\PSoC4/I2C_1_I2C_MASTER.c ****     return(theByte);
 788:Generated_Source\PSoC4/I2C_1_I2C_MASTER.c **** }
 535              		.loc 1 788 0
 536              		@ sp needed
 537 0066 7047     		bx	lr
 538              	.L43:
 539              		.align	2
 540              	.L42:
 541 0068 00000000 		.word	I2C_1_state
 542 006c C00F0740 		.word	1074204608
 543 0070 000F0740 		.word	1074204416
 544 0074 40030740 		.word	1074201408
 545 0078 68000740 		.word	1074200680
 546 007c 17030000 		.word	791
 547 0080 00000740 		.word	1074200576
 548              		.cfi_endproc
 549              	.LFE7:
 550              		.size	I2C_1_I2CMasterReadByte, .-I2C_1_I2CMasterReadByte
 551              		.section	.text.I2C_1_I2CMasterGetReadBufSize,"ax",%progbits
 552              		.align	2
 553              		.global	I2C_1_I2CMasterGetReadBufSize
 554              		.code	16
 555              		.thumb_func
 556              		.type	I2C_1_I2CMasterGetReadBufSize, %function
 557              	I2C_1_I2CMasterGetReadBufSize:
 558              	.LFB8:
 789:Generated_Source\PSoC4/I2C_1_I2C_MASTER.c **** 
 790:Generated_Source\PSoC4/I2C_1_I2C_MASTER.c **** 
 791:Generated_Source\PSoC4/I2C_1_I2C_MASTER.c **** /*******************************************************************************
 792:Generated_Source\PSoC4/I2C_1_I2C_MASTER.c **** * Function Name: I2C_1_I2CMasterGetReadBufSize
 793:Generated_Source\PSoC4/I2C_1_I2C_MASTER.c **** ****************************************************************************//**
 794:Generated_Source\PSoC4/I2C_1_I2C_MASTER.c **** *
 795:Generated_Source\PSoC4/I2C_1_I2C_MASTER.c **** *  Returns the number of bytes that has been transferred with an
 796:Generated_Source\PSoC4/I2C_1_I2C_MASTER.c **** *  I2C_1_I2CMasterReadBuf() function.
ARM GAS  C:\Users\raymond\AppData\Local\Temp\cc1iXpfr.s 			page 25


 797:Generated_Source\PSoC4/I2C_1_I2C_MASTER.c **** *
 798:Generated_Source\PSoC4/I2C_1_I2C_MASTER.c **** * \return
 799:Generated_Source\PSoC4/I2C_1_I2C_MASTER.c **** *  Byte count of transfer. If the transfer is not yet complete, it returns
 800:Generated_Source\PSoC4/I2C_1_I2C_MASTER.c **** *  the byte count transferred so far.
 801:Generated_Source\PSoC4/I2C_1_I2C_MASTER.c **** *
 802:Generated_Source\PSoC4/I2C_1_I2C_MASTER.c **** * \sideeffect
 803:Generated_Source\PSoC4/I2C_1_I2C_MASTER.c **** *  This function returns not valid value if 
 804:Generated_Source\PSoC4/I2C_1_I2C_MASTER.c **** *  I2C_1_I2C_MSTAT_ERR_ARB_LOST or
 805:Generated_Source\PSoC4/I2C_1_I2C_MASTER.c **** *  I2C_1_I2C_MSTAT_ERR_BUS_ERROR occurred while read transfer.
 806:Generated_Source\PSoC4/I2C_1_I2C_MASTER.c **** *
 807:Generated_Source\PSoC4/I2C_1_I2C_MASTER.c **** * \globalvars
 808:Generated_Source\PSoC4/I2C_1_I2C_MASTER.c **** *  I2C_1_mstrRdBufIndex - used to current index within master read
 809:Generated_Source\PSoC4/I2C_1_I2C_MASTER.c **** *  buffer.
 810:Generated_Source\PSoC4/I2C_1_I2C_MASTER.c **** *
 811:Generated_Source\PSoC4/I2C_1_I2C_MASTER.c **** *******************************************************************************/
 812:Generated_Source\PSoC4/I2C_1_I2C_MASTER.c **** uint32 I2C_1_I2CMasterGetReadBufSize(void)
 813:Generated_Source\PSoC4/I2C_1_I2C_MASTER.c **** {
 559              		.loc 1 813 0
 560              		.cfi_startproc
 814:Generated_Source\PSoC4/I2C_1_I2C_MASTER.c ****     return(I2C_1_mstrRdBufIndex);
 561              		.loc 1 814 0
 562 0000 014B     		ldr	r3, .L45
 563 0002 1868     		ldr	r0, [r3]
 815:Generated_Source\PSoC4/I2C_1_I2C_MASTER.c **** }
 564              		.loc 1 815 0
 565              		@ sp needed
 566 0004 7047     		bx	lr
 567              	.L46:
 568 0006 C046     		.align	2
 569              	.L45:
 570 0008 00000000 		.word	I2C_1_mstrRdBufIndex
 571              		.cfi_endproc
 572              	.LFE8:
 573              		.size	I2C_1_I2CMasterGetReadBufSize, .-I2C_1_I2CMasterGetReadBufSize
 574              		.section	.text.I2C_1_I2CMasterGetWriteBufSize,"ax",%progbits
 575              		.align	2
 576              		.global	I2C_1_I2CMasterGetWriteBufSize
 577              		.code	16
 578              		.thumb_func
 579              		.type	I2C_1_I2CMasterGetWriteBufSize, %function
 580              	I2C_1_I2CMasterGetWriteBufSize:
 581              	.LFB9:
 816:Generated_Source\PSoC4/I2C_1_I2C_MASTER.c **** 
 817:Generated_Source\PSoC4/I2C_1_I2C_MASTER.c **** 
 818:Generated_Source\PSoC4/I2C_1_I2C_MASTER.c **** /*******************************************************************************
 819:Generated_Source\PSoC4/I2C_1_I2C_MASTER.c **** * Function Name: I2C_1_I2CMasterGetWriteBufSize
 820:Generated_Source\PSoC4/I2C_1_I2C_MASTER.c **** ****************************************************************************//**
 821:Generated_Source\PSoC4/I2C_1_I2C_MASTER.c **** *
 822:Generated_Source\PSoC4/I2C_1_I2C_MASTER.c **** *  Returns the number of bytes that have been transferred with an
 823:Generated_Source\PSoC4/I2C_1_I2C_MASTER.c **** *  SCB_I2CMasterWriteBuf() function.
 824:Generated_Source\PSoC4/I2C_1_I2C_MASTER.c **** *
 825:Generated_Source\PSoC4/I2C_1_I2C_MASTER.c **** * \return
 826:Generated_Source\PSoC4/I2C_1_I2C_MASTER.c **** *   Byte count of transfer. If the transfer is not yet complete, it returns
 827:Generated_Source\PSoC4/I2C_1_I2C_MASTER.c **** *   zero unit transfer completion.
 828:Generated_Source\PSoC4/I2C_1_I2C_MASTER.c **** *
 829:Generated_Source\PSoC4/I2C_1_I2C_MASTER.c **** * \sideeffect
 830:Generated_Source\PSoC4/I2C_1_I2C_MASTER.c **** *   This function returns not valid value if 
ARM GAS  C:\Users\raymond\AppData\Local\Temp\cc1iXpfr.s 			page 26


 831:Generated_Source\PSoC4/I2C_1_I2C_MASTER.c **** *   I2C_1_I2C_MSTAT_ERR_ARB_LOST or 
 832:Generated_Source\PSoC4/I2C_1_I2C_MASTER.c **** *   I2C_1_I2C_MSTAT_ERR_BUS_ERROR occurred while read transfer.
 833:Generated_Source\PSoC4/I2C_1_I2C_MASTER.c **** *
 834:Generated_Source\PSoC4/I2C_1_I2C_MASTER.c **** * \globalvars
 835:Generated_Source\PSoC4/I2C_1_I2C_MASTER.c **** *  I2C_1_mstrWrBufIndex - used to current index within master write
 836:Generated_Source\PSoC4/I2C_1_I2C_MASTER.c **** *  buffer.
 837:Generated_Source\PSoC4/I2C_1_I2C_MASTER.c **** *
 838:Generated_Source\PSoC4/I2C_1_I2C_MASTER.c **** *******************************************************************************/
 839:Generated_Source\PSoC4/I2C_1_I2C_MASTER.c **** uint32 I2C_1_I2CMasterGetWriteBufSize(void)
 840:Generated_Source\PSoC4/I2C_1_I2C_MASTER.c **** {
 582              		.loc 1 840 0
 583              		.cfi_startproc
 841:Generated_Source\PSoC4/I2C_1_I2C_MASTER.c ****     return(I2C_1_mstrWrBufIndex);
 584              		.loc 1 841 0
 585 0000 014B     		ldr	r3, .L48
 586 0002 1868     		ldr	r0, [r3]
 842:Generated_Source\PSoC4/I2C_1_I2C_MASTER.c **** }
 587              		.loc 1 842 0
 588              		@ sp needed
 589 0004 7047     		bx	lr
 590              	.L49:
 591 0006 C046     		.align	2
 592              	.L48:
 593 0008 00000000 		.word	I2C_1_mstrWrBufIndex
 594              		.cfi_endproc
 595              	.LFE9:
 596              		.size	I2C_1_I2CMasterGetWriteBufSize, .-I2C_1_I2CMasterGetWriteBufSize
 597              		.section	.text.I2C_1_I2CMasterClearReadBuf,"ax",%progbits
 598              		.align	2
 599              		.global	I2C_1_I2CMasterClearReadBuf
 600              		.code	16
 601              		.thumb_func
 602              		.type	I2C_1_I2CMasterClearReadBuf, %function
 603              	I2C_1_I2CMasterClearReadBuf:
 604              	.LFB10:
 843:Generated_Source\PSoC4/I2C_1_I2C_MASTER.c **** 
 844:Generated_Source\PSoC4/I2C_1_I2C_MASTER.c **** 
 845:Generated_Source\PSoC4/I2C_1_I2C_MASTER.c **** /*******************************************************************************
 846:Generated_Source\PSoC4/I2C_1_I2C_MASTER.c **** * Function Name: I2C_1_I2CMasterClearReadBuf
 847:Generated_Source\PSoC4/I2C_1_I2C_MASTER.c **** ****************************************************************************//**
 848:Generated_Source\PSoC4/I2C_1_I2C_MASTER.c **** *
 849:Generated_Source\PSoC4/I2C_1_I2C_MASTER.c **** *  Resets the read buffer pointer back to the first byte in the buffer.
 850:Generated_Source\PSoC4/I2C_1_I2C_MASTER.c **** *
 851:Generated_Source\PSoC4/I2C_1_I2C_MASTER.c **** * \globalvars
 852:Generated_Source\PSoC4/I2C_1_I2C_MASTER.c **** *  I2C_1_mstrRdBufIndex - used to current index within master read
 853:Generated_Source\PSoC4/I2C_1_I2C_MASTER.c **** *   buffer.
 854:Generated_Source\PSoC4/I2C_1_I2C_MASTER.c **** *  I2C_1_mstrStatus - used to store current status of I2C Master.
 855:Generated_Source\PSoC4/I2C_1_I2C_MASTER.c **** *
 856:Generated_Source\PSoC4/I2C_1_I2C_MASTER.c **** *******************************************************************************/
 857:Generated_Source\PSoC4/I2C_1_I2C_MASTER.c **** void I2C_1_I2CMasterClearReadBuf(void)
 858:Generated_Source\PSoC4/I2C_1_I2C_MASTER.c **** {
 605              		.loc 1 858 0
 606              		.cfi_startproc
 607 0000 08B5     		push	{r3, lr}
 608              		.cfi_def_cfa_offset 8
 609              		.cfi_offset 3, -8
 610              		.cfi_offset 14, -4
ARM GAS  C:\Users\raymond\AppData\Local\Temp\cc1iXpfr.s 			page 27


 859:Generated_Source\PSoC4/I2C_1_I2C_MASTER.c ****     I2C_1_DisableInt();  /* Lock from interruption */
 611              		.loc 1 859 0
 612 0002 0820     		mov	r0, #8
 613 0004 FFF7FEFF 		bl	CyIntDisable
 614              	.LVL50:
 860:Generated_Source\PSoC4/I2C_1_I2C_MASTER.c **** 
 861:Generated_Source\PSoC4/I2C_1_I2C_MASTER.c ****     I2C_1_mstrRdBufIndex = 0u;
 615              		.loc 1 861 0
 616 0008 0022     		mov	r2, #0
 617 000a 054B     		ldr	r3, .L51
 618 000c 1A60     		str	r2, [r3]
 862:Generated_Source\PSoC4/I2C_1_I2C_MASTER.c ****     I2C_1_mstrStatus    &= (uint16) ~I2C_1_I2C_MSTAT_RD_CMPLT;
 619              		.loc 1 862 0
 620 000e 054A     		ldr	r2, .L51+4
 621 0010 1388     		ldrh	r3, [r2]
 622 0012 0121     		mov	r1, #1
 623 0014 8B43     		bic	r3, r1
 624 0016 1380     		strh	r3, [r2]
 863:Generated_Source\PSoC4/I2C_1_I2C_MASTER.c **** 
 864:Generated_Source\PSoC4/I2C_1_I2C_MASTER.c ****     I2C_1_EnableInt();   /* Release lock */
 625              		.loc 1 864 0
 626 0018 0820     		mov	r0, #8
 627 001a FFF7FEFF 		bl	CyIntEnable
 628              	.LVL51:
 865:Generated_Source\PSoC4/I2C_1_I2C_MASTER.c **** }
 629              		.loc 1 865 0
 630              		@ sp needed
 631 001e 08BD     		pop	{r3, pc}
 632              	.L52:
 633              		.align	2
 634              	.L51:
 635 0020 00000000 		.word	I2C_1_mstrRdBufIndex
 636 0024 00000000 		.word	I2C_1_mstrStatus
 637              		.cfi_endproc
 638              	.LFE10:
 639              		.size	I2C_1_I2CMasterClearReadBuf, .-I2C_1_I2CMasterClearReadBuf
 640              		.section	.text.I2C_1_I2CMasterClearWriteBuf,"ax",%progbits
 641              		.align	2
 642              		.global	I2C_1_I2CMasterClearWriteBuf
 643              		.code	16
 644              		.thumb_func
 645              		.type	I2C_1_I2CMasterClearWriteBuf, %function
 646              	I2C_1_I2CMasterClearWriteBuf:
 647              	.LFB11:
 866:Generated_Source\PSoC4/I2C_1_I2C_MASTER.c **** 
 867:Generated_Source\PSoC4/I2C_1_I2C_MASTER.c **** 
 868:Generated_Source\PSoC4/I2C_1_I2C_MASTER.c **** /*******************************************************************************
 869:Generated_Source\PSoC4/I2C_1_I2C_MASTER.c **** * Function Name: I2C_1_I2CMasterClearWriteBuf
 870:Generated_Source\PSoC4/I2C_1_I2C_MASTER.c **** ****************************************************************************//**
 871:Generated_Source\PSoC4/I2C_1_I2C_MASTER.c **** *
 872:Generated_Source\PSoC4/I2C_1_I2C_MASTER.c **** *  Resets the write buffer pointer back to the first byte in the buffer.
 873:Generated_Source\PSoC4/I2C_1_I2C_MASTER.c **** *
 874:Generated_Source\PSoC4/I2C_1_I2C_MASTER.c **** * \globalvars
 875:Generated_Source\PSoC4/I2C_1_I2C_MASTER.c **** *  I2C_1_mstrRdBufIndex - used to current index within master read
 876:Generated_Source\PSoC4/I2C_1_I2C_MASTER.c **** *   buffer.
 877:Generated_Source\PSoC4/I2C_1_I2C_MASTER.c **** *  I2C_1_mstrStatus - used to store current status of I2C Master.
 878:Generated_Source\PSoC4/I2C_1_I2C_MASTER.c **** *
ARM GAS  C:\Users\raymond\AppData\Local\Temp\cc1iXpfr.s 			page 28


 879:Generated_Source\PSoC4/I2C_1_I2C_MASTER.c **** *******************************************************************************/
 880:Generated_Source\PSoC4/I2C_1_I2C_MASTER.c **** void I2C_1_I2CMasterClearWriteBuf(void)
 881:Generated_Source\PSoC4/I2C_1_I2C_MASTER.c **** {
 648              		.loc 1 881 0
 649              		.cfi_startproc
 650 0000 08B5     		push	{r3, lr}
 651              		.cfi_def_cfa_offset 8
 652              		.cfi_offset 3, -8
 653              		.cfi_offset 14, -4
 882:Generated_Source\PSoC4/I2C_1_I2C_MASTER.c ****     I2C_1_DisableInt();  /* Lock from interruption */
 654              		.loc 1 882 0
 655 0002 0820     		mov	r0, #8
 656 0004 FFF7FEFF 		bl	CyIntDisable
 657              	.LVL52:
 883:Generated_Source\PSoC4/I2C_1_I2C_MASTER.c **** 
 884:Generated_Source\PSoC4/I2C_1_I2C_MASTER.c ****     I2C_1_mstrWrBufIndex = 0u;
 658              		.loc 1 884 0
 659 0008 0022     		mov	r2, #0
 660 000a 054B     		ldr	r3, .L54
 661 000c 1A60     		str	r2, [r3]
 885:Generated_Source\PSoC4/I2C_1_I2C_MASTER.c ****     I2C_1_mstrStatus    &= (uint16) ~I2C_1_I2C_MSTAT_WR_CMPLT;
 662              		.loc 1 885 0
 663 000e 054A     		ldr	r2, .L54+4
 664 0010 1388     		ldrh	r3, [r2]
 665 0012 0221     		mov	r1, #2
 666 0014 8B43     		bic	r3, r1
 667 0016 1380     		strh	r3, [r2]
 886:Generated_Source\PSoC4/I2C_1_I2C_MASTER.c **** 
 887:Generated_Source\PSoC4/I2C_1_I2C_MASTER.c ****     I2C_1_EnableInt();   /* Release lock */
 668              		.loc 1 887 0
 669 0018 0820     		mov	r0, #8
 670 001a FFF7FEFF 		bl	CyIntEnable
 671              	.LVL53:
 888:Generated_Source\PSoC4/I2C_1_I2C_MASTER.c **** }
 672              		.loc 1 888 0
 673              		@ sp needed
 674 001e 08BD     		pop	{r3, pc}
 675              	.L55:
 676              		.align	2
 677              	.L54:
 678 0020 00000000 		.word	I2C_1_mstrWrBufIndex
 679 0024 00000000 		.word	I2C_1_mstrStatus
 680              		.cfi_endproc
 681              	.LFE11:
 682              		.size	I2C_1_I2CMasterClearWriteBuf, .-I2C_1_I2CMasterClearWriteBuf
 683              		.section	.text.I2C_1_I2CMasterStatus,"ax",%progbits
 684              		.align	2
 685              		.global	I2C_1_I2CMasterStatus
 686              		.code	16
 687              		.thumb_func
 688              		.type	I2C_1_I2CMasterStatus, %function
 689              	I2C_1_I2CMasterStatus:
 690              	.LFB12:
 889:Generated_Source\PSoC4/I2C_1_I2C_MASTER.c **** 
 890:Generated_Source\PSoC4/I2C_1_I2C_MASTER.c **** 
 891:Generated_Source\PSoC4/I2C_1_I2C_MASTER.c **** /*******************************************************************************
 892:Generated_Source\PSoC4/I2C_1_I2C_MASTER.c **** * Function Name: I2C_1_I2CMasterStatus
ARM GAS  C:\Users\raymond\AppData\Local\Temp\cc1iXpfr.s 			page 29


 893:Generated_Source\PSoC4/I2C_1_I2C_MASTER.c **** ****************************************************************************//**
 894:Generated_Source\PSoC4/I2C_1_I2C_MASTER.c **** *
 895:Generated_Source\PSoC4/I2C_1_I2C_MASTER.c **** *  Returns the master's communication status.
 896:Generated_Source\PSoC4/I2C_1_I2C_MASTER.c **** *
 897:Generated_Source\PSoC4/I2C_1_I2C_MASTER.c **** * \return
 898:Generated_Source\PSoC4/I2C_1_I2C_MASTER.c **** *  Current status of I2C master. This status incorporates status constants. 
 899:Generated_Source\PSoC4/I2C_1_I2C_MASTER.c **** *  Each constant is a bit field value. The value returned may have multiple 
 900:Generated_Source\PSoC4/I2C_1_I2C_MASTER.c **** *  bits set to indicate the status of the read or write transfer.
 901:Generated_Source\PSoC4/I2C_1_I2C_MASTER.c **** *  - I2C_1_I2C_MSTAT_RD_CMPLT - Read transfer complete.
 902:Generated_Source\PSoC4/I2C_1_I2C_MASTER.c **** *    The error condition status bits must be checked to ensure that 
 903:Generated_Source\PSoC4/I2C_1_I2C_MASTER.c **** *    read transfer was completed successfully.
 904:Generated_Source\PSoC4/I2C_1_I2C_MASTER.c **** *  - I2C_1_I2C_MSTAT_WR_CMPLT - Write transfer complete.
 905:Generated_Source\PSoC4/I2C_1_I2C_MASTER.c **** *    The error condition status bits must be checked to ensure that write 
 906:Generated_Source\PSoC4/I2C_1_I2C_MASTER.c **** *    transfer was completed successfully.
 907:Generated_Source\PSoC4/I2C_1_I2C_MASTER.c **** *  - I2C_1_I2C_MSTAT_XFER_INP - Transfer in progress.
 908:Generated_Source\PSoC4/I2C_1_I2C_MASTER.c **** *  - I2C_1_I2C_MSTAT_XFER_HALT - Transfer has been halted. 
 909:Generated_Source\PSoC4/I2C_1_I2C_MASTER.c **** *    The I2C bus is waiting for ReStart or Stop condition generation.
 910:Generated_Source\PSoC4/I2C_1_I2C_MASTER.c **** *  - I2C_1_I2C_MSTAT_ERR_SHORT_XFER - Error condition: Write 
 911:Generated_Source\PSoC4/I2C_1_I2C_MASTER.c **** *    transfer completed before all bytes were transferred. The slave NAKed 
 912:Generated_Source\PSoC4/I2C_1_I2C_MASTER.c **** *    the byte which was expected to be ACKed.
 913:Generated_Source\PSoC4/I2C_1_I2C_MASTER.c **** *  - I2C_1_I2C_MSTAT_ERR_ADDR_NAK - Error condition: Slave did 
 914:Generated_Source\PSoC4/I2C_1_I2C_MASTER.c **** *    not acknowledge address.
 915:Generated_Source\PSoC4/I2C_1_I2C_MASTER.c **** *  - I2C_1_I2C_MSTAT_ERR_ARB_LOST - Error condition: Master lost 
 916:Generated_Source\PSoC4/I2C_1_I2C_MASTER.c **** *    arbitration during communications with slave.
 917:Generated_Source\PSoC4/I2C_1_I2C_MASTER.c **** *  - I2C_1_I2C_MSTAT_ERR_BUS_ERROR - Error condition: bus error 
 918:Generated_Source\PSoC4/I2C_1_I2C_MASTER.c **** *    occurred during master transfer due to misplaced Start or Stop 
 919:Generated_Source\PSoC4/I2C_1_I2C_MASTER.c **** *    condition on the bus.
 920:Generated_Source\PSoC4/I2C_1_I2C_MASTER.c **** *  - I2C_1_I2C_MSTAT_ERR_ABORT_XFER - Error condition: Slave was 
 921:Generated_Source\PSoC4/I2C_1_I2C_MASTER.c **** *    addressed by another master while master performed the start condition 
 922:Generated_Source\PSoC4/I2C_1_I2C_MASTER.c **** *    generation. As a result, master has automatically switched to slave 
 923:Generated_Source\PSoC4/I2C_1_I2C_MASTER.c **** *    mode and is responding. The master transaction has not taken place
 924:Generated_Source\PSoC4/I2C_1_I2C_MASTER.c **** *    This error condition only applicable for Multi-Master-Slave mode.
 925:Generated_Source\PSoC4/I2C_1_I2C_MASTER.c **** *  - I2C_1_I2C_MSTAT_ERR_XFER - Error condition: This is the 
 926:Generated_Source\PSoC4/I2C_1_I2C_MASTER.c **** *    ORed value of all error conditions provided above.
 927:Generated_Source\PSoC4/I2C_1_I2C_MASTER.c **** *
 928:Generated_Source\PSoC4/I2C_1_I2C_MASTER.c **** * \globalvars
 929:Generated_Source\PSoC4/I2C_1_I2C_MASTER.c **** *  I2C_1_mstrStatus - used to store current status of I2C Master.
 930:Generated_Source\PSoC4/I2C_1_I2C_MASTER.c **** *
 931:Generated_Source\PSoC4/I2C_1_I2C_MASTER.c **** *******************************************************************************/
 932:Generated_Source\PSoC4/I2C_1_I2C_MASTER.c **** uint32 I2C_1_I2CMasterStatus(void)
 933:Generated_Source\PSoC4/I2C_1_I2C_MASTER.c **** {
 691              		.loc 1 933 0
 692              		.cfi_startproc
 693 0000 10B5     		push	{r4, lr}
 694              		.cfi_def_cfa_offset 8
 695              		.cfi_offset 4, -8
 696              		.cfi_offset 14, -4
 934:Generated_Source\PSoC4/I2C_1_I2C_MASTER.c ****     uint32 status;
 935:Generated_Source\PSoC4/I2C_1_I2C_MASTER.c **** 
 936:Generated_Source\PSoC4/I2C_1_I2C_MASTER.c ****     I2C_1_DisableInt();  /* Lock from interruption */
 697              		.loc 1 936 0
 698 0002 0820     		mov	r0, #8
 699 0004 FFF7FEFF 		bl	CyIntDisable
 700              	.LVL54:
 937:Generated_Source\PSoC4/I2C_1_I2C_MASTER.c **** 
 938:Generated_Source\PSoC4/I2C_1_I2C_MASTER.c ****     status = (uint32) I2C_1_mstrStatus;
 701              		.loc 1 938 0
ARM GAS  C:\Users\raymond\AppData\Local\Temp\cc1iXpfr.s 			page 30


 702 0008 074B     		ldr	r3, .L58
 703 000a 1B88     		ldrh	r3, [r3]
 704 000c 9BB2     		uxth	r3, r3
 705 000e 1C1C     		mov	r4, r3
 706              	.LVL55:
 939:Generated_Source\PSoC4/I2C_1_I2C_MASTER.c **** 
 940:Generated_Source\PSoC4/I2C_1_I2C_MASTER.c ****     if (I2C_1_CHECK_I2C_MASTER_ACTIVE)
 707              		.loc 1 940 0
 708 0010 064A     		ldr	r2, .L58+4
 709 0012 1278     		ldrb	r2, [r2]
 710 0014 9206     		lsl	r2, r2, #26
 711 0016 01D5     		bpl	.L57
 941:Generated_Source\PSoC4/I2C_1_I2C_MASTER.c ****     {
 942:Generated_Source\PSoC4/I2C_1_I2C_MASTER.c ****         /* Add status of master pending transaction: MSTAT_XFER_INP */
 943:Generated_Source\PSoC4/I2C_1_I2C_MASTER.c ****         status |= (uint32) I2C_1_I2C_MSTAT_XFER_INP;
 712              		.loc 1 943 0
 713 0018 0424     		mov	r4, #4
 714 001a 1C43     		orr	r4, r3
 715              	.LVL56:
 716              	.L57:
 944:Generated_Source\PSoC4/I2C_1_I2C_MASTER.c ****     }
 945:Generated_Source\PSoC4/I2C_1_I2C_MASTER.c **** 
 946:Generated_Source\PSoC4/I2C_1_I2C_MASTER.c ****     I2C_1_EnableInt();   /* Release lock */
 717              		.loc 1 946 0
 718 001c 0820     		mov	r0, #8
 719 001e FFF7FEFF 		bl	CyIntEnable
 720              	.LVL57:
 947:Generated_Source\PSoC4/I2C_1_I2C_MASTER.c **** 
 948:Generated_Source\PSoC4/I2C_1_I2C_MASTER.c ****     return(status);
 949:Generated_Source\PSoC4/I2C_1_I2C_MASTER.c **** }
 721              		.loc 1 949 0
 722 0022 201C     		mov	r0, r4
 723              		@ sp needed
 724              	.LVL58:
 725 0024 10BD     		pop	{r4, pc}
 726              	.L59:
 727 0026 C046     		.align	2
 728              	.L58:
 729 0028 00000000 		.word	I2C_1_mstrStatus
 730 002c 00000000 		.word	I2C_1_state
 731              		.cfi_endproc
 732              	.LFE12:
 733              		.size	I2C_1_I2CMasterStatus, .-I2C_1_I2CMasterStatus
 734              		.section	.text.I2C_1_I2CMasterClearStatus,"ax",%progbits
 735              		.align	2
 736              		.global	I2C_1_I2CMasterClearStatus
 737              		.code	16
 738              		.thumb_func
 739              		.type	I2C_1_I2CMasterClearStatus, %function
 740              	I2C_1_I2CMasterClearStatus:
 741              	.LFB13:
 950:Generated_Source\PSoC4/I2C_1_I2C_MASTER.c **** 
 951:Generated_Source\PSoC4/I2C_1_I2C_MASTER.c **** 
 952:Generated_Source\PSoC4/I2C_1_I2C_MASTER.c **** /*******************************************************************************
 953:Generated_Source\PSoC4/I2C_1_I2C_MASTER.c **** * Function Name: I2C_1_I2CMasterClearStatus
 954:Generated_Source\PSoC4/I2C_1_I2C_MASTER.c **** ****************************************************************************//**
 955:Generated_Source\PSoC4/I2C_1_I2C_MASTER.c **** *
ARM GAS  C:\Users\raymond\AppData\Local\Temp\cc1iXpfr.s 			page 31


 956:Generated_Source\PSoC4/I2C_1_I2C_MASTER.c **** *  Clears all status flags and returns the master status.
 957:Generated_Source\PSoC4/I2C_1_I2C_MASTER.c **** *
 958:Generated_Source\PSoC4/I2C_1_I2C_MASTER.c **** * \return
 959:Generated_Source\PSoC4/I2C_1_I2C_MASTER.c **** *  Current status of master. See the I2C_1_I2CMasterStatus() 
 960:Generated_Source\PSoC4/I2C_1_I2C_MASTER.c **** *  function for constants.
 961:Generated_Source\PSoC4/I2C_1_I2C_MASTER.c **** *
 962:Generated_Source\PSoC4/I2C_1_I2C_MASTER.c **** * \globalvars
 963:Generated_Source\PSoC4/I2C_1_I2C_MASTER.c **** *  I2C_1_mstrStatus - used to store current status of I2C Master.
 964:Generated_Source\PSoC4/I2C_1_I2C_MASTER.c **** *
 965:Generated_Source\PSoC4/I2C_1_I2C_MASTER.c **** *******************************************************************************/
 966:Generated_Source\PSoC4/I2C_1_I2C_MASTER.c **** uint32 I2C_1_I2CMasterClearStatus(void)
 967:Generated_Source\PSoC4/I2C_1_I2C_MASTER.c **** {
 742              		.loc 1 967 0
 743              		.cfi_startproc
 744 0000 10B5     		push	{r4, lr}
 745              		.cfi_def_cfa_offset 8
 746              		.cfi_offset 4, -8
 747              		.cfi_offset 14, -4
 968:Generated_Source\PSoC4/I2C_1_I2C_MASTER.c ****     uint32 status;
 969:Generated_Source\PSoC4/I2C_1_I2C_MASTER.c **** 
 970:Generated_Source\PSoC4/I2C_1_I2C_MASTER.c ****     I2C_1_DisableInt();  /* Lock from interruption */
 748              		.loc 1 970 0
 749 0002 0820     		mov	r0, #8
 750 0004 FFF7FEFF 		bl	CyIntDisable
 751              	.LVL59:
 971:Generated_Source\PSoC4/I2C_1_I2C_MASTER.c **** 
 972:Generated_Source\PSoC4/I2C_1_I2C_MASTER.c ****     /* Read and clear master status */
 973:Generated_Source\PSoC4/I2C_1_I2C_MASTER.c ****     status = (uint32) I2C_1_mstrStatus;
 752              		.loc 1 973 0
 753 0008 044B     		ldr	r3, .L61
 754 000a 1C88     		ldrh	r4, [r3]
 755 000c A4B2     		uxth	r4, r4
 756              	.LVL60:
 974:Generated_Source\PSoC4/I2C_1_I2C_MASTER.c ****     I2C_1_mstrStatus = I2C_1_I2C_MSTAT_CLEAR;
 757              		.loc 1 974 0
 758 000e 0022     		mov	r2, #0
 759 0010 1A80     		strh	r2, [r3]
 975:Generated_Source\PSoC4/I2C_1_I2C_MASTER.c **** 
 976:Generated_Source\PSoC4/I2C_1_I2C_MASTER.c ****     I2C_1_EnableInt();   /* Release lock */
 760              		.loc 1 976 0
 761 0012 0820     		mov	r0, #8
 762 0014 FFF7FEFF 		bl	CyIntEnable
 763              	.LVL61:
 977:Generated_Source\PSoC4/I2C_1_I2C_MASTER.c **** 
 978:Generated_Source\PSoC4/I2C_1_I2C_MASTER.c ****     return(status);
 979:Generated_Source\PSoC4/I2C_1_I2C_MASTER.c **** }
 764              		.loc 1 979 0
 765 0018 201C     		mov	r0, r4
 766              		@ sp needed
 767              	.LVL62:
 768 001a 10BD     		pop	{r4, pc}
 769              	.L62:
 770              		.align	2
 771              	.L61:
 772 001c 00000000 		.word	I2C_1_mstrStatus
 773              		.cfi_endproc
 774              	.LFE13:
ARM GAS  C:\Users\raymond\AppData\Local\Temp\cc1iXpfr.s 			page 32


 775              		.size	I2C_1_I2CMasterClearStatus, .-I2C_1_I2CMasterClearStatus
 776              		.section	.text.I2C_1_I2CReStartGeneration,"ax",%progbits
 777              		.align	2
 778              		.global	I2C_1_I2CReStartGeneration
 779              		.code	16
 780              		.thumb_func
 781              		.type	I2C_1_I2CReStartGeneration, %function
 782              	I2C_1_I2CReStartGeneration:
 783              	.LFB14:
 980:Generated_Source\PSoC4/I2C_1_I2C_MASTER.c **** 
 981:Generated_Source\PSoC4/I2C_1_I2C_MASTER.c **** 
 982:Generated_Source\PSoC4/I2C_1_I2C_MASTER.c **** /*******************************************************************************
 983:Generated_Source\PSoC4/I2C_1_I2C_MASTER.c **** * Function Name: I2C_1_I2CReStartGeneration
 984:Generated_Source\PSoC4/I2C_1_I2C_MASTER.c **** ****************************************************************************//**
 985:Generated_Source\PSoC4/I2C_1_I2C_MASTER.c **** *
 986:Generated_Source\PSoC4/I2C_1_I2C_MASTER.c **** *  Generates a ReStart condition:
 987:Generated_Source\PSoC4/I2C_1_I2C_MASTER.c **** *  - SCB IP V1 and later: Generates ReStart using the scb IP functionality
 988:Generated_Source\PSoC4/I2C_1_I2C_MASTER.c **** *    Sets the I2C_MASTER_CMD_M_START and I2C_MASTER_CMD_M_NACK (if the previous
 989:Generated_Source\PSoC4/I2C_1_I2C_MASTER.c **** *    transaction was read) bits in the SCB.I2C_MASTER_CMD register.
 990:Generated_Source\PSoC4/I2C_1_I2C_MASTER.c **** *    This combination forces the master to generate ReStart.
 991:Generated_Source\PSoC4/I2C_1_I2C_MASTER.c **** *
 992:Generated_Source\PSoC4/I2C_1_I2C_MASTER.c **** *  - SCB IP V0: Generates Restart using the GPIO and scb IP functionality.
 993:Generated_Source\PSoC4/I2C_1_I2C_MASTER.c **** *    After the master completes write or read, the SCL is stretched.
 994:Generated_Source\PSoC4/I2C_1_I2C_MASTER.c **** *    The master waits until SDA line is released by the slave. Then the GPIO
 995:Generated_Source\PSoC4/I2C_1_I2C_MASTER.c **** *    function is enabled and the scb IP disabled as it already does not drive
 996:Generated_Source\PSoC4/I2C_1_I2C_MASTER.c **** *    the bus. In case of the previous transfer was read, the NACK is generated
 997:Generated_Source\PSoC4/I2C_1_I2C_MASTER.c **** *    by the GPIO. The delay of tLOW is added to manage the hold time.
 998:Generated_Source\PSoC4/I2C_1_I2C_MASTER.c **** *    Set I2C_M_CMD.START and enable the scb IP. The ReStart generation
 999:Generated_Source\PSoC4/I2C_1_I2C_MASTER.c **** *    is started after the I2C function is enabled for the SCL.
1000:Generated_Source\PSoC4/I2C_1_I2C_MASTER.c **** *    Note1: the scb IP due re-enable generates Start but on the I2C bus it
1001:Generated_Source\PSoC4/I2C_1_I2C_MASTER.c **** *           appears as ReStart.
1002:Generated_Source\PSoC4/I2C_1_I2C_MASTER.c **** *    Note2: the I2C_M_CMD.START is queued if scb IP is disabled.
1003:Generated_Source\PSoC4/I2C_1_I2C_MASTER.c **** *    Note3: the I2C_STATUS_M_READ is cleared is address was NACKed before.
1004:Generated_Source\PSoC4/I2C_1_I2C_MASTER.c **** *
1005:Generated_Source\PSoC4/I2C_1_I2C_MASTER.c **** * \sideeffect
1006:Generated_Source\PSoC4/I2C_1_I2C_MASTER.c **** *  SCB IP V0: The NACK generation by the GPIO may cause a greater SCL period
1007:Generated_Source\PSoC4/I2C_1_I2C_MASTER.c **** *             than expected for the selected master data rate.
1008:Generated_Source\PSoC4/I2C_1_I2C_MASTER.c **** *
1009:Generated_Source\PSoC4/I2C_1_I2C_MASTER.c **** *******************************************************************************/
1010:Generated_Source\PSoC4/I2C_1_I2C_MASTER.c **** void I2C_1_I2CReStartGeneration(void)
1011:Generated_Source\PSoC4/I2C_1_I2C_MASTER.c **** {
 784              		.loc 1 1011 0
 785              		.cfi_startproc
 786              	.LVL63:
1012:Generated_Source\PSoC4/I2C_1_I2C_MASTER.c **** #if(I2C_1_CY_SCBIP_V0)
1013:Generated_Source\PSoC4/I2C_1_I2C_MASTER.c ****     /* Generates Restart use GPIO and scb IP functionality. Ticket ID#143715,
1014:Generated_Source\PSoC4/I2C_1_I2C_MASTER.c ****     * ID#145238 and ID#173656.
1015:Generated_Source\PSoC4/I2C_1_I2C_MASTER.c ****     */
1016:Generated_Source\PSoC4/I2C_1_I2C_MASTER.c ****     uint32 status = I2C_1_I2C_STATUS_REG;
1017:Generated_Source\PSoC4/I2C_1_I2C_MASTER.c **** 
1018:Generated_Source\PSoC4/I2C_1_I2C_MASTER.c ****     while(I2C_1_WAIT_SDA_SET_HIGH)
1019:Generated_Source\PSoC4/I2C_1_I2C_MASTER.c ****     {
1020:Generated_Source\PSoC4/I2C_1_I2C_MASTER.c ****         /* Wait when slave release SDA line: SCL tHIGH is complete */
1021:Generated_Source\PSoC4/I2C_1_I2C_MASTER.c ****     }
1022:Generated_Source\PSoC4/I2C_1_I2C_MASTER.c **** 
1023:Generated_Source\PSoC4/I2C_1_I2C_MASTER.c ****     /* Prepare DR register to drive SCL line */
1024:Generated_Source\PSoC4/I2C_1_I2C_MASTER.c ****     I2C_1_SET_I2C_SCL_DR(I2C_1_I2C_SCL_LOW);
ARM GAS  C:\Users\raymond\AppData\Local\Temp\cc1iXpfr.s 			page 33


1025:Generated_Source\PSoC4/I2C_1_I2C_MASTER.c **** 
1026:Generated_Source\PSoC4/I2C_1_I2C_MASTER.c ****     /* Switch HSIOM to GPIO: SCL goes low */
1027:Generated_Source\PSoC4/I2C_1_I2C_MASTER.c ****     I2C_1_SET_I2C_SCL_HSIOM_SEL(I2C_1_HSIOM_GPIO_SEL);
1028:Generated_Source\PSoC4/I2C_1_I2C_MASTER.c **** 
1029:Generated_Source\PSoC4/I2C_1_I2C_MASTER.c ****     /* Disable SCB block */
1030:Generated_Source\PSoC4/I2C_1_I2C_MASTER.c ****     I2C_1_CTRL_REG &= (uint32) ~I2C_1_CTRL_ENABLED;
1031:Generated_Source\PSoC4/I2C_1_I2C_MASTER.c **** 
1032:Generated_Source\PSoC4/I2C_1_I2C_MASTER.c ****     if(0u != (status & I2C_1_I2C_STATUS_M_READ))
1033:Generated_Source\PSoC4/I2C_1_I2C_MASTER.c ****     {
1034:Generated_Source\PSoC4/I2C_1_I2C_MASTER.c ****         /* Generate NACK use GPIO functionality */
1035:Generated_Source\PSoC4/I2C_1_I2C_MASTER.c ****         I2C_1_SET_I2C_SCL_DR(I2C_1_I2C_SCL_LOW);
1036:Generated_Source\PSoC4/I2C_1_I2C_MASTER.c ****         CyDelayUs(I2C_1_I2C_TLOW_TIME); /* Count tLOW */
1037:Generated_Source\PSoC4/I2C_1_I2C_MASTER.c **** 
1038:Generated_Source\PSoC4/I2C_1_I2C_MASTER.c ****         I2C_1_SET_I2C_SCL_DR(I2C_1_I2C_SCL_HIGH);
1039:Generated_Source\PSoC4/I2C_1_I2C_MASTER.c ****         while(I2C_1_WAIT_SCL_SET_HIGH)
1040:Generated_Source\PSoC4/I2C_1_I2C_MASTER.c ****         {
1041:Generated_Source\PSoC4/I2C_1_I2C_MASTER.c ****             /* Wait until slave releases SCL in case if it stretches */
1042:Generated_Source\PSoC4/I2C_1_I2C_MASTER.c ****         }
1043:Generated_Source\PSoC4/I2C_1_I2C_MASTER.c ****         CyDelayUs(I2C_1_I2C_THIGH_TIME); /* Count tHIGH */
1044:Generated_Source\PSoC4/I2C_1_I2C_MASTER.c ****     }
1045:Generated_Source\PSoC4/I2C_1_I2C_MASTER.c **** 
1046:Generated_Source\PSoC4/I2C_1_I2C_MASTER.c ****     /* Count tLOW as hold time for write and read */
1047:Generated_Source\PSoC4/I2C_1_I2C_MASTER.c ****     I2C_1_SET_I2C_SCL_DR(I2C_1_I2C_SCL_LOW);
1048:Generated_Source\PSoC4/I2C_1_I2C_MASTER.c ****     CyDelayUs(I2C_1_I2C_TLOW_TIME); /* Count tLOW */
1049:Generated_Source\PSoC4/I2C_1_I2C_MASTER.c **** 
1050:Generated_Source\PSoC4/I2C_1_I2C_MASTER.c ****     /* Set command for Start generation: it will appear */
1051:Generated_Source\PSoC4/I2C_1_I2C_MASTER.c ****     I2C_1_I2C_MASTER_CMD_REG = I2C_1_I2C_MASTER_CMD_M_START;
1052:Generated_Source\PSoC4/I2C_1_I2C_MASTER.c **** 
1053:Generated_Source\PSoC4/I2C_1_I2C_MASTER.c ****     /* Enable SCB block */
1054:Generated_Source\PSoC4/I2C_1_I2C_MASTER.c ****     I2C_1_CTRL_REG |= (uint32) I2C_1_CTRL_ENABLED;
1055:Generated_Source\PSoC4/I2C_1_I2C_MASTER.c **** 
1056:Generated_Source\PSoC4/I2C_1_I2C_MASTER.c ****     /* Switch HSIOM to I2C: */
1057:Generated_Source\PSoC4/I2C_1_I2C_MASTER.c ****     I2C_1_SET_I2C_SCL_HSIOM_SEL(I2C_1_HSIOM_I2C_SEL);
1058:Generated_Source\PSoC4/I2C_1_I2C_MASTER.c **** 
1059:Generated_Source\PSoC4/I2C_1_I2C_MASTER.c ****     /* Revert SCL DR register */
1060:Generated_Source\PSoC4/I2C_1_I2C_MASTER.c ****     I2C_1_SET_I2C_SCL_DR(I2C_1_I2C_SCL_HIGH);
1061:Generated_Source\PSoC4/I2C_1_I2C_MASTER.c **** #else
1062:Generated_Source\PSoC4/I2C_1_I2C_MASTER.c ****     uint32 cmd;
1063:Generated_Source\PSoC4/I2C_1_I2C_MASTER.c **** 
1064:Generated_Source\PSoC4/I2C_1_I2C_MASTER.c ****     /* Generates ReStart use scb IP functionality */
1065:Generated_Source\PSoC4/I2C_1_I2C_MASTER.c ****     cmd  = I2C_1_I2C_MASTER_CMD_M_START;
1066:Generated_Source\PSoC4/I2C_1_I2C_MASTER.c ****     cmd |= I2C_1_CHECK_I2C_STATUS(I2C_1_I2C_STATUS_M_READ) ?
 787              		.loc 1 1066 0
 788 0000 054B     		ldr	r3, .L65
 789 0002 1B68     		ldr	r3, [r3]
 790 0004 2022     		mov	r2, #32
 791 0006 1340     		and	r3, r2
1067:Generated_Source\PSoC4/I2C_1_I2C_MASTER.c ****                 (I2C_1_I2C_MASTER_CMD_M_NACK) : (0u);
 792              		.loc 1 1067 0
 793 0008 00D0     		beq	.L64
 794 000a 0823     		mov	r3, #8
 795              	.L64:
1066:Generated_Source\PSoC4/I2C_1_I2C_MASTER.c ****                 (I2C_1_I2C_MASTER_CMD_M_NACK) : (0u);
 796              		.loc 1 1066 0 discriminator 4
 797 000c 0122     		mov	r2, #1
 798 000e 1343     		orr	r3, r2
 799              	.LVL64:
ARM GAS  C:\Users\raymond\AppData\Local\Temp\cc1iXpfr.s 			page 34


1068:Generated_Source\PSoC4/I2C_1_I2C_MASTER.c **** 
1069:Generated_Source\PSoC4/I2C_1_I2C_MASTER.c ****     I2C_1_I2C_MASTER_CMD_REG = cmd;
 800              		.loc 1 1069 0 discriminator 4
 801 0010 024A     		ldr	r2, .L65+4
 802 0012 1360     		str	r3, [r2]
1070:Generated_Source\PSoC4/I2C_1_I2C_MASTER.c **** #endif /* (I2C_1_CY_SCBIP_V1) */
1071:Generated_Source\PSoC4/I2C_1_I2C_MASTER.c **** }
 803              		.loc 1 1071 0 discriminator 4
 804              		@ sp needed
 805 0014 7047     		bx	lr
 806              	.L66:
 807 0016 C046     		.align	2
 808              	.L65:
 809 0018 64000740 		.word	1074200676
 810 001c 68000740 		.word	1074200680
 811              		.cfi_endproc
 812              	.LFE14:
 813              		.size	I2C_1_I2CReStartGeneration, .-I2C_1_I2CReStartGeneration
 814              		.section	.text.I2C_1_I2CMasterWriteBuf,"ax",%progbits
 815              		.align	2
 816              		.global	I2C_1_I2CMasterWriteBuf
 817              		.code	16
 818              		.thumb_func
 819              		.type	I2C_1_I2CMasterWriteBuf, %function
 820              	I2C_1_I2CMasterWriteBuf:
 821              	.LFB1:
  99:Generated_Source\PSoC4/I2C_1_I2C_MASTER.c ****     uint32 errStatus;
 822              		.loc 1 99 0
 823              		.cfi_startproc
 824              	.LVL65:
 825 0000 F0B5     		push	{r4, r5, r6, r7, lr}
 826              		.cfi_def_cfa_offset 20
 827              		.cfi_offset 4, -20
 828              		.cfi_offset 5, -16
 829              		.cfi_offset 6, -12
 830              		.cfi_offset 7, -8
 831              		.cfi_offset 14, -4
 832 0002 83B0     		sub	sp, sp, #12
 833              		.cfi_def_cfa_offset 32
 834 0004 0190     		str	r0, [sp, #4]
 835 0006 0C1C     		mov	r4, r1
 836 0008 171C     		mov	r7, r2
 837 000a 1D1C     		mov	r5, r3
 838              	.LVL66:
 104:Generated_Source\PSoC4/I2C_1_I2C_MASTER.c ****     {
 839              		.loc 1 104 0
 840 000c 0029     		cmp	r1, #0
 841 000e 19D0     		beq	.L73
 107:Generated_Source\PSoC4/I2C_1_I2C_MASTER.c ****         {
 842              		.loc 1 107 0
 843 0010 284B     		ldr	r3, .L76
 844              	.LVL67:
 845 0012 1B78     		ldrb	r3, [r3]
 846 0014 102B     		cmp	r3, #16
 847 0016 0AD1     		bne	.L69
 109:Generated_Source\PSoC4/I2C_1_I2C_MASTER.c **** 
 848              		.loc 1 109 0
ARM GAS  C:\Users\raymond\AppData\Local\Temp\cc1iXpfr.s 			page 35


 849 0018 0820     		mov	r0, #8
 850              	.LVL68:
 851 001a FFF7FEFF 		bl	CyIntDisable
 852              	.LVL69:
 112:Generated_Source\PSoC4/I2C_1_I2C_MASTER.c ****                             I2C_1_I2C_MSTR_BUS_BUSY : I2C_1_I2C_MSTR_NO_ERROR;
 853              		.loc 1 112 0
 854 001e 264B     		ldr	r3, .L76+4
 855 0020 1B68     		ldr	r3, [r3]
 856 0022 DB07     		lsl	r3, r3, #31
 857 0024 01D5     		bpl	.L74
 858 0026 0826     		mov	r6, #8
 859 0028 0FE0     		b	.L68
 860              	.L74:
 861 002a 0026     		mov	r6, #0
 862              	.LVL70:
 863 002c 0DE0     		b	.L68
 864              	.LVL71:
 865              	.L69:
 115:Generated_Source\PSoC4/I2C_1_I2C_MASTER.c ****         {
 866              		.loc 1 115 0
 867 002e 214B     		ldr	r3, .L76
 868 0030 1B78     		ldrb	r3, [r3]
 869 0032 602B     		cmp	r3, #96
 870 0034 08D1     		bne	.L75
 117:Generated_Source\PSoC4/I2C_1_I2C_MASTER.c ****                               errStatus  = I2C_1_I2C_MSTR_NO_ERROR;
 871              		.loc 1 117 0
 872 0036 214A     		ldr	r2, .L76+8
 873              	.LVL72:
 874 0038 1388     		ldrh	r3, [r2]
 875 003a 0821     		mov	r1, #8
 876              	.LVL73:
 877 003c 8B43     		bic	r3, r1
 878 003e 1380     		strh	r3, [r2]
 879              	.LVL74:
 118:Generated_Source\PSoC4/I2C_1_I2C_MASTER.c ****         }
 880              		.loc 1 118 0
 881 0040 0026     		mov	r6, #0
 882 0042 02E0     		b	.L68
 883              	.LVL75:
 884              	.L73:
 102:Generated_Source\PSoC4/I2C_1_I2C_MASTER.c **** 
 885              		.loc 1 102 0
 886 0044 0426     		mov	r6, #4
 887 0046 00E0     		b	.L68
 888              	.LVL76:
 889              	.L75:
 890 0048 0426     		mov	r6, #4
 891              	.LVL77:
 892              	.L68:
 127:Generated_Source\PSoC4/I2C_1_I2C_MASTER.c ****     {
 893              		.loc 1 127 0
 894 004a 002E     		cmp	r6, #0
 895 004c 2BD1     		bne	.L71
 135:Generated_Source\PSoC4/I2C_1_I2C_MASTER.c ****         I2C_1_mstrWrBufIndexTmp = 0u;
 896              		.loc 1 135 0
 897 004e 2822     		mov	r2, #40
 898 0050 184B     		ldr	r3, .L76
ARM GAS  C:\Users\raymond\AppData\Local\Temp\cc1iXpfr.s 			page 36


 899 0052 1A70     		strb	r2, [r3]
 136:Generated_Source\PSoC4/I2C_1_I2C_MASTER.c ****         I2C_1_mstrWrBufIndex    = 0u;
 900              		.loc 1 136 0
 901 0054 0023     		mov	r3, #0
 902 0056 1A4A     		ldr	r2, .L76+12
 903 0058 1360     		str	r3, [r2]
 137:Generated_Source\PSoC4/I2C_1_I2C_MASTER.c ****         I2C_1_mstrWrBufSize     = cnt;
 904              		.loc 1 137 0
 905 005a 1A4A     		ldr	r2, .L76+16
 906 005c 1360     		str	r3, [r2]
 138:Generated_Source\PSoC4/I2C_1_I2C_MASTER.c ****         I2C_1_mstrWrBufPtr      = (volatile uint8 *) wrData;
 907              		.loc 1 138 0
 908 005e 1A4B     		ldr	r3, .L76+20
 909 0060 1F60     		str	r7, [r3]
 139:Generated_Source\PSoC4/I2C_1_I2C_MASTER.c ****         I2C_1_mstrControl       = (uint8) mode;
 910              		.loc 1 139 0
 911 0062 1A4B     		ldr	r3, .L76+24
 912 0064 1C60     		str	r4, [r3]
 140:Generated_Source\PSoC4/I2C_1_I2C_MASTER.c **** 
 913              		.loc 1 140 0
 914 0066 EAB2     		uxtb	r2, r5
 915 0068 194B     		ldr	r3, .L76+28
 916 006a 1A70     		strb	r2, [r3]
 142:Generated_Source\PSoC4/I2C_1_I2C_MASTER.c **** 
 917              		.loc 1 142 0
 918 006c 019B     		ldr	r3, [sp, #4]
 919 006e 5C00     		lsl	r4, r3, #1
 920              	.LVL78:
 921 0070 FF23     		mov	r3, #255
 922 0072 1C40     		and	r4, r3
 923              	.LVL79:
 144:Generated_Source\PSoC4/I2C_1_I2C_MASTER.c **** 
 924              		.loc 1 144 0
 925 0074 114A     		ldr	r2, .L76+8
 926 0076 1388     		ldrh	r3, [r2]
 927 0078 0221     		mov	r1, #2
 928 007a 8B43     		bic	r3, r1
 929 007c 1380     		strh	r3, [r2]
 146:Generated_Source\PSoC4/I2C_1_I2C_MASTER.c ****         I2C_1_ClearTxInterruptSource(I2C_1_INTR_TX_UNDERFLOW);
 930              		.loc 1 146 0
 931 007e 154A     		ldr	r2, .L76+32
 932 0080 154B     		ldr	r3, .L76+36
 933 0082 1A60     		str	r2, [r3]
 934              	.LVL80:
 147:Generated_Source\PSoC4/I2C_1_I2C_MASTER.c **** 
 935              		.loc 1 147 0
 936 0084 4023     		mov	r3, #64
 937 0086 154A     		ldr	r2, .L76+40
 938 0088 1360     		str	r3, [r2]
 152:Generated_Source\PSoC4/I2C_1_I2C_MASTER.c **** 
 939              		.loc 1 152 0
 940 008a 154A     		ldr	r2, .L76+44
 941 008c 1360     		str	r3, [r2]
 155:Generated_Source\PSoC4/I2C_1_I2C_MASTER.c ****         {
 942              		.loc 1 155 0
 943 008e EB07     		lsl	r3, r5, #31
 944 0090 04D5     		bpl	.L72
ARM GAS  C:\Users\raymond\AppData\Local\Temp\cc1iXpfr.s 			page 37


 157:Generated_Source\PSoC4/I2C_1_I2C_MASTER.c ****             I2C_1_TX_FIFO_WR_REG = slaveAddress;
 945              		.loc 1 157 0
 946 0092 FFF7FEFF 		bl	I2C_1_I2CReStartGeneration
 947              	.LVL81:
 158:Generated_Source\PSoC4/I2C_1_I2C_MASTER.c ****         }
 948              		.loc 1 158 0
 949 0096 134B     		ldr	r3, .L76+48
 950 0098 1C60     		str	r4, [r3]
 951 009a 04E0     		b	.L71
 952              	.L72:
 162:Generated_Source\PSoC4/I2C_1_I2C_MASTER.c ****             I2C_1_I2C_MASTER_GENERATE_START;
 953              		.loc 1 162 0
 954 009c 114B     		ldr	r3, .L76+48
 955 009e 1C60     		str	r4, [r3]
 163:Generated_Source\PSoC4/I2C_1_I2C_MASTER.c ****         }
 956              		.loc 1 163 0
 957 00a0 0222     		mov	r2, #2
 958 00a2 114B     		ldr	r3, .L76+52
 959 00a4 1A60     		str	r2, [r3]
 960              	.LVL82:
 961              	.L71:
 167:Generated_Source\PSoC4/I2C_1_I2C_MASTER.c **** 
 962              		.loc 1 167 0
 963 00a6 0820     		mov	r0, #8
 964 00a8 FFF7FEFF 		bl	CyIntEnable
 965              	.LVL83:
 170:Generated_Source\PSoC4/I2C_1_I2C_MASTER.c **** 
 966              		.loc 1 170 0
 967 00ac 301C     		mov	r0, r6
 968 00ae 03B0     		add	sp, sp, #12
 969              		@ sp needed
 970              	.LVL84:
 971              	.LVL85:
 972              	.LVL86:
 973 00b0 F0BD     		pop	{r4, r5, r6, r7, pc}
 974              	.L77:
 975 00b2 C046     		.align	2
 976              	.L76:
 977 00b4 00000000 		.word	I2C_1_state
 978 00b8 64000740 		.word	1074200676
 979 00bc 00000000 		.word	I2C_1_mstrStatus
 980 00c0 00000000 		.word	I2C_1_mstrWrBufIndexTmp
 981 00c4 00000000 		.word	I2C_1_mstrWrBufIndex
 982 00c8 00000000 		.word	I2C_1_mstrWrBufSize
 983 00cc 00000000 		.word	I2C_1_mstrWrBufPtr
 984 00d0 00000000 		.word	I2C_1_mstrControl
 985 00d4 17030000 		.word	791
 986 00d8 000F0740 		.word	1074204416
 987 00dc 800F0740 		.word	1074204544
 988 00e0 880F0740 		.word	1074204552
 989 00e4 40020740 		.word	1074201152
 990 00e8 68000740 		.word	1074200680
 991              		.cfi_endproc
 992              	.LFE1:
 993              		.size	I2C_1_I2CMasterWriteBuf, .-I2C_1_I2CMasterWriteBuf
 994              		.section	.text.I2C_1_I2CMasterReadBuf,"ax",%progbits
 995              		.align	2
ARM GAS  C:\Users\raymond\AppData\Local\Temp\cc1iXpfr.s 			page 38


 996              		.global	I2C_1_I2CMasterReadBuf
 997              		.code	16
 998              		.thumb_func
 999              		.type	I2C_1_I2CMasterReadBuf, %function
 1000              	I2C_1_I2CMasterReadBuf:
 1001              	.LFB2:
 210:Generated_Source\PSoC4/I2C_1_I2C_MASTER.c ****     uint32 errStatus;
 1002              		.loc 1 210 0
 1003              		.cfi_startproc
 1004              	.LVL87:
 1005 0000 F0B5     		push	{r4, r5, r6, r7, lr}
 1006              		.cfi_def_cfa_offset 20
 1007              		.cfi_offset 4, -20
 1008              		.cfi_offset 5, -16
 1009              		.cfi_offset 6, -12
 1010              		.cfi_offset 7, -8
 1011              		.cfi_offset 14, -4
 1012 0002 83B0     		sub	sp, sp, #12
 1013              		.cfi_def_cfa_offset 32
 1014 0004 0190     		str	r0, [sp, #4]
 1015 0006 0C1C     		mov	r4, r1
 1016 0008 171C     		mov	r7, r2
 1017 000a 1D1C     		mov	r5, r3
 1018              	.LVL88:
 215:Generated_Source\PSoC4/I2C_1_I2C_MASTER.c ****     {
 1019              		.loc 1 215 0
 1020 000c 0029     		cmp	r1, #0
 1021 000e 19D0     		beq	.L86
 218:Generated_Source\PSoC4/I2C_1_I2C_MASTER.c ****         {
 1022              		.loc 1 218 0
 1023 0010 2D4B     		ldr	r3, .L89
 1024              	.LVL89:
 1025 0012 1B78     		ldrb	r3, [r3]
 1026 0014 102B     		cmp	r3, #16
 1027 0016 0AD1     		bne	.L80
 220:Generated_Source\PSoC4/I2C_1_I2C_MASTER.c **** 
 1028              		.loc 1 220 0
 1029 0018 0820     		mov	r0, #8
 1030              	.LVL90:
 1031 001a FFF7FEFF 		bl	CyIntDisable
 1032              	.LVL91:
 223:Generated_Source\PSoC4/I2C_1_I2C_MASTER.c ****                             I2C_1_I2C_MSTR_BUS_BUSY : I2C_1_I2C_MSTR_NO_ERROR;
 1033              		.loc 1 223 0
 1034 001e 2B4B     		ldr	r3, .L89+4
 1035 0020 1B68     		ldr	r3, [r3]
 1036 0022 DB07     		lsl	r3, r3, #31
 1037 0024 01D5     		bpl	.L87
 1038 0026 0826     		mov	r6, #8
 1039 0028 0FE0     		b	.L79
 1040              	.L87:
 1041 002a 0026     		mov	r6, #0
 1042              	.LVL92:
 1043 002c 0DE0     		b	.L79
 1044              	.LVL93:
 1045              	.L80:
 226:Generated_Source\PSoC4/I2C_1_I2C_MASTER.c ****         {
 1046              		.loc 1 226 0
ARM GAS  C:\Users\raymond\AppData\Local\Temp\cc1iXpfr.s 			page 39


 1047 002e 264B     		ldr	r3, .L89
 1048 0030 1B78     		ldrb	r3, [r3]
 1049 0032 602B     		cmp	r3, #96
 1050 0034 08D1     		bne	.L88
 228:Generated_Source\PSoC4/I2C_1_I2C_MASTER.c ****                               errStatus  =  I2C_1_I2C_MSTR_NO_ERROR;
 1051              		.loc 1 228 0
 1052 0036 264A     		ldr	r2, .L89+8
 1053              	.LVL94:
 1054 0038 1388     		ldrh	r3, [r2]
 1055 003a 0821     		mov	r1, #8
 1056              	.LVL95:
 1057 003c 8B43     		bic	r3, r1
 1058 003e 1380     		strh	r3, [r2]
 1059              	.LVL96:
 229:Generated_Source\PSoC4/I2C_1_I2C_MASTER.c ****         }
 1060              		.loc 1 229 0
 1061 0040 0026     		mov	r6, #0
 1062 0042 02E0     		b	.L79
 1063              	.LVL97:
 1064              	.L86:
 213:Generated_Source\PSoC4/I2C_1_I2C_MASTER.c **** 
 1065              		.loc 1 213 0
 1066 0044 0426     		mov	r6, #4
 1067 0046 00E0     		b	.L79
 1068              	.LVL98:
 1069              	.L88:
 1070 0048 0426     		mov	r6, #4
 1071              	.LVL99:
 1072              	.L79:
 238:Generated_Source\PSoC4/I2C_1_I2C_MASTER.c ****     {
 1073              		.loc 1 238 0
 1074 004a 002E     		cmp	r6, #0
 1075 004c 35D1     		bne	.L82
 246:Generated_Source\PSoC4/I2C_1_I2C_MASTER.c ****         I2C_1_mstrRdBufIndex = 0u;
 1076              		.loc 1 246 0
 1077 004e 2922     		mov	r2, #41
 1078 0050 1D4B     		ldr	r3, .L89
 1079 0052 1A70     		strb	r2, [r3]
 247:Generated_Source\PSoC4/I2C_1_I2C_MASTER.c ****         I2C_1_mstrRdBufSize  = cnt;
 1080              		.loc 1 247 0
 1081 0054 0022     		mov	r2, #0
 1082 0056 1F4B     		ldr	r3, .L89+12
 1083 0058 1A60     		str	r2, [r3]
 248:Generated_Source\PSoC4/I2C_1_I2C_MASTER.c ****         I2C_1_mstrRdBufPtr   = (volatile uint8 *) rdData;
 1084              		.loc 1 248 0
 1085 005a 1F4A     		ldr	r2, .L89+16
 1086 005c 1760     		str	r7, [r2]
 249:Generated_Source\PSoC4/I2C_1_I2C_MASTER.c ****         I2C_1_mstrControl    = (uint8) mode;
 1087              		.loc 1 249 0
 1088 005e 1F4B     		ldr	r3, .L89+20
 1089 0060 1C60     		str	r4, [r3]
 250:Generated_Source\PSoC4/I2C_1_I2C_MASTER.c **** 
 1090              		.loc 1 250 0
 1091 0062 EBB2     		uxtb	r3, r5
 1092 0064 1E49     		ldr	r1, .L89+24
 1093 0066 0B70     		strb	r3, [r1]
 252:Generated_Source\PSoC4/I2C_1_I2C_MASTER.c **** 
ARM GAS  C:\Users\raymond\AppData\Local\Temp\cc1iXpfr.s 			page 40


 1094              		.loc 1 252 0
 1095 0068 019B     		ldr	r3, [sp, #4]
 1096 006a 5C00     		lsl	r4, r3, #1
 1097              	.LVL100:
 1098 006c FF23     		mov	r3, #255
 1099 006e 1C40     		and	r4, r3
 1100 0070 0120     		mov	r0, #1
 1101 0072 0443     		orr	r4, r0
 1102              	.LVL101:
 254:Generated_Source\PSoC4/I2C_1_I2C_MASTER.c **** 
 1103              		.loc 1 254 0
 1104 0074 1649     		ldr	r1, .L89+8
 1105 0076 0B88     		ldrh	r3, [r1]
 1106 0078 8343     		bic	r3, r0
 1107 007a 0B80     		strh	r3, [r1]
 256:Generated_Source\PSoC4/I2C_1_I2C_MASTER.c **** 
 1108              		.loc 1 256 0
 1109 007c 1949     		ldr	r1, .L89+28
 1110 007e 1A4B     		ldr	r3, .L89+32
 1111 0080 1960     		str	r1, [r3]
 1112              	.LVL102:
 261:Generated_Source\PSoC4/I2C_1_I2C_MASTER.c ****         {
 1113              		.loc 1 261 0
 1114 0082 1368     		ldr	r3, [r2]
 1115 0084 072B     		cmp	r3, #7
 1116 0086 03D8     		bhi	.L83
 264:Generated_Source\PSoC4/I2C_1_I2C_MASTER.c ****         }
 1117              		.loc 1 264 0
 1118 0088 0422     		mov	r2, #4
 1119 008a 184B     		ldr	r3, .L89+36
 1120 008c 1A60     		str	r2, [r3]
 1121 008e 08E0     		b	.L84
 1122              	.L83:
 269:Generated_Source\PSoC4/I2C_1_I2C_MASTER.c ****             I2C_1_SetRxInterruptMode(I2C_1_INTR_RX_FULL);
 1123              		.loc 1 269 0
 1124 0090 174A     		ldr	r2, .L89+40
 1125 0092 1368     		ldr	r3, [r2]
 1126 0094 8021     		mov	r1, #128
 1127 0096 4900     		lsl	r1, r1, #1
 1128 0098 0B43     		orr	r3, r1
 1129 009a 1360     		str	r3, [r2]
 270:Generated_Source\PSoC4/I2C_1_I2C_MASTER.c ****         }
 1130              		.loc 1 270 0
 1131 009c 0822     		mov	r2, #8
 1132 009e 134B     		ldr	r3, .L89+36
 1133 00a0 1A60     		str	r2, [r3]
 1134              	.L84:
 274:Generated_Source\PSoC4/I2C_1_I2C_MASTER.c ****         {
 1135              		.loc 1 274 0
 1136 00a2 EB07     		lsl	r3, r5, #31
 1137 00a4 04D5     		bpl	.L85
 276:Generated_Source\PSoC4/I2C_1_I2C_MASTER.c ****             I2C_1_TX_FIFO_WR_REG = (slaveAddress);
 1138              		.loc 1 276 0
 1139 00a6 FFF7FEFF 		bl	I2C_1_I2CReStartGeneration
 1140              	.LVL103:
 277:Generated_Source\PSoC4/I2C_1_I2C_MASTER.c ****         }
 1141              		.loc 1 277 0
ARM GAS  C:\Users\raymond\AppData\Local\Temp\cc1iXpfr.s 			page 41


 1142 00aa 124B     		ldr	r3, .L89+44
 1143 00ac 1C60     		str	r4, [r3]
 1144 00ae 04E0     		b	.L82
 1145              	.L85:
 281:Generated_Source\PSoC4/I2C_1_I2C_MASTER.c ****             I2C_1_I2C_MASTER_GENERATE_START;
 1146              		.loc 1 281 0
 1147 00b0 104B     		ldr	r3, .L89+44
 1148 00b2 1C60     		str	r4, [r3]
 282:Generated_Source\PSoC4/I2C_1_I2C_MASTER.c ****         }
 1149              		.loc 1 282 0
 1150 00b4 0222     		mov	r2, #2
 1151 00b6 104B     		ldr	r3, .L89+48
 1152 00b8 1A60     		str	r2, [r3]
 1153              	.LVL104:
 1154              	.L82:
 286:Generated_Source\PSoC4/I2C_1_I2C_MASTER.c **** 
 1155              		.loc 1 286 0
 1156 00ba 0820     		mov	r0, #8
 1157 00bc FFF7FEFF 		bl	CyIntEnable
 1158              	.LVL105:
 289:Generated_Source\PSoC4/I2C_1_I2C_MASTER.c **** 
 1159              		.loc 1 289 0
 1160 00c0 301C     		mov	r0, r6
 1161 00c2 03B0     		add	sp, sp, #12
 1162              		@ sp needed
 1163              	.LVL106:
 1164              	.LVL107:
 1165              	.LVL108:
 1166 00c4 F0BD     		pop	{r4, r5, r6, r7, pc}
 1167              	.L90:
 1168 00c6 C046     		.align	2
 1169              	.L89:
 1170 00c8 00000000 		.word	I2C_1_state
 1171 00cc 64000740 		.word	1074200676
 1172 00d0 00000000 		.word	I2C_1_mstrStatus
 1173 00d4 00000000 		.word	I2C_1_mstrRdBufIndex
 1174 00d8 00000000 		.word	I2C_1_mstrRdBufSize
 1175 00dc 00000000 		.word	I2C_1_mstrRdBufPtr
 1176 00e0 00000000 		.word	I2C_1_mstrControl
 1177 00e4 17030000 		.word	791
 1178 00e8 000F0740 		.word	1074204416
 1179 00ec C80F0740 		.word	1074204616
 1180 00f0 60000740 		.word	1074200672
 1181 00f4 40020740 		.word	1074201152
 1182 00f8 68000740 		.word	1074200680
 1183              		.cfi_endproc
 1184              	.LFE2:
 1185              		.size	I2C_1_I2CMasterReadBuf, .-I2C_1_I2CMasterReadBuf
 1186              		.section	.text.I2C_1_I2CMasterSendRestart,"ax",%progbits
 1187              		.align	2
 1188              		.global	I2C_1_I2CMasterSendRestart
 1189              		.code	16
 1190              		.thumb_func
 1191              		.type	I2C_1_I2CMasterSendRestart, %function
 1192              	I2C_1_I2CMasterSendRestart:
 1193              	.LFB4:
 459:Generated_Source\PSoC4/I2C_1_I2C_MASTER.c ****     uint32 resetIp;
ARM GAS  C:\Users\raymond\AppData\Local\Temp\cc1iXpfr.s 			page 42


 1194              		.loc 1 459 0
 1195              		.cfi_startproc
 1196              	.LVL109:
 1197 0000 10B5     		push	{r4, lr}
 1198              		.cfi_def_cfa_offset 8
 1199              		.cfi_offset 4, -8
 1200              		.cfi_offset 14, -4
 1201              	.LVL110:
 467:Generated_Source\PSoC4/I2C_1_I2C_MASTER.c ****     {
 1202              		.loc 1 467 0
 1203 0002 2A4B     		ldr	r3, .L102
 1204 0004 1B78     		ldrb	r3, [r3]
 1205 0006 9B06     		lsl	r3, r3, #26
 1206 0008 4DD5     		bpl	.L99
 469:Generated_Source\PSoC4/I2C_1_I2C_MASTER.c **** 
 1207              		.loc 1 469 0
 1208 000a 4000     		lsl	r0, r0, #1
 1209              	.LVL111:
 1210 000c FF24     		mov	r4, #255
 1211 000e 0440     		and	r4, r0
 1212              	.LVL112:
 471:Generated_Source\PSoC4/I2C_1_I2C_MASTER.c ****         {
 1213              		.loc 1 471 0
 1214 0010 0029     		cmp	r1, #0
 1215 0012 03D1     		bne	.L93
 473:Generated_Source\PSoC4/I2C_1_I2C_MASTER.c ****         }
 1216              		.loc 1 473 0
 1217 0014 2422     		mov	r2, #36
 1218 0016 254B     		ldr	r3, .L102
 1219 0018 1A70     		strb	r2, [r3]
 1220 001a 04E0     		b	.L94
 1221              	.L93:
 477:Generated_Source\PSoC4/I2C_1_I2C_MASTER.c ****                       slaveAddress |= I2C_1_I2C_READ_FLAG;
 1222              		.loc 1 477 0
 1223 001c 2522     		mov	r2, #37
 1224 001e 234B     		ldr	r3, .L102
 1225 0020 1A70     		strb	r2, [r3]
 478:Generated_Source\PSoC4/I2C_1_I2C_MASTER.c ****         }
 1226              		.loc 1 478 0
 1227 0022 0123     		mov	r3, #1
 1228 0024 1C43     		orr	r4, r3
 1229              	.LVL113:
 1230              	.L94:
 484:Generated_Source\PSoC4/I2C_1_I2C_MASTER.c **** 
 1231              		.loc 1 484 0
 1232 0026 224A     		ldr	r2, .L102+4
 1233 0028 224B     		ldr	r3, .L102+8
 1234 002a 1A60     		str	r2, [r3]
 490:Generated_Source\PSoC4/I2C_1_I2C_MASTER.c **** 
 1235              		.loc 1 490 0
 1236 002c FFF7FEFF 		bl	I2C_1_I2CReStartGeneration
 1237              	.LVL114:
 1238              	.L95:
 492:Generated_Source\PSoC4/I2C_1_I2C_MASTER.c ****         {
 1239              		.loc 1 492 0 discriminator 1
 1240 0030 214B     		ldr	r3, .L102+12
 1241 0032 1B68     		ldr	r3, [r3]
ARM GAS  C:\Users\raymond\AppData\Local\Temp\cc1iXpfr.s 			page 43


 1242 0034 DB07     		lsl	r3, r3, #31
 1243 0036 FBD4     		bmi	.L95
 498:Generated_Source\PSoC4/I2C_1_I2C_MASTER.c **** 
 1244              		.loc 1 498 0
 1245 0038 204B     		ldr	r3, .L102+16
 1246 003a 1C60     		str	r4, [r3]
 1247              	.L96:
 501:Generated_Source\PSoC4/I2C_1_I2C_MASTER.c ****                                                   I2C_1_INTR_MASTER_I2C_NACK     |
 1248              		.loc 1 501 0 discriminator 1
 1249 003c 1D4B     		ldr	r3, .L102+8
 1250 003e 1A68     		ldr	r2, [r3]
 1251 0040 0823     		mov	r3, #8
 1252 0042 FF33     		add	r3, r3, #255
 1253 0044 1A42     		tst	r2, r3
 1254 0046 F9D0     		beq	.L96
 510:Generated_Source\PSoC4/I2C_1_I2C_MASTER.c ****         {
 1255              		.loc 1 510 0
 1256 0048 1A4B     		ldr	r3, .L102+8
 1257 004a 1B68     		ldr	r3, [r3]
 1258 004c 5B07     		lsl	r3, r3, #29
 1259 004e 14D4     		bmi	.L100
 514:Generated_Source\PSoC4/I2C_1_I2C_MASTER.c ****         {
 1260              		.loc 1 514 0
 1261 0050 184B     		ldr	r3, .L102+8
 1262 0052 1B68     		ldr	r3, [r3]
 1263 0054 9B07     		lsl	r3, r3, #30
 1264 0056 13D4     		bmi	.L101
 518:Generated_Source\PSoC4/I2C_1_I2C_MASTER.c ****         {
 1265              		.loc 1 518 0
 1266 0058 164B     		ldr	r3, .L102+8
 1267 005a 1B68     		ldr	r3, [r3]
 1268 005c DB07     		lsl	r3, r3, #31
 1269 005e 05D5     		bpl	.L98
 520:Generated_Source\PSoC4/I2C_1_I2C_MASTER.c ****                          errStatus = I2C_1_I2C_MSTR_ERR_ARB_LOST;
 1270              		.loc 1 520 0
 1271 0060 1022     		mov	r2, #16
 1272 0062 124B     		ldr	r3, .L102
 1273 0064 1A70     		strb	r2, [r3]
 1274              	.LVL115:
 521:Generated_Source\PSoC4/I2C_1_I2C_MASTER.c ****                          resetIp   = I2C_1_I2C_RESET_ERROR;
 1275              		.loc 1 521 0
 1276 0066 0120     		mov	r0, #1
 522:Generated_Source\PSoC4/I2C_1_I2C_MASTER.c ****         }
 1277              		.loc 1 522 0
 1278 0068 0121     		mov	r1, #1
 1279 006a 0BE0     		b	.L97
 1280              	.LVL116:
 1281              	.L98:
 526:Generated_Source\PSoC4/I2C_1_I2C_MASTER.c ****                          errStatus = I2C_1_I2C_MSTR_ERR_BUS_ERR;
 1282              		.loc 1 526 0
 1283 006c 1022     		mov	r2, #16
 1284 006e 0F4B     		ldr	r3, .L102
 1285 0070 1A70     		strb	r2, [r3]
 1286              	.LVL117:
 527:Generated_Source\PSoC4/I2C_1_I2C_MASTER.c ****                          resetIp   = I2C_1_I2C_RESET_ERROR;
 1287              		.loc 1 527 0
 1288 0072 8020     		mov	r0, #128
ARM GAS  C:\Users\raymond\AppData\Local\Temp\cc1iXpfr.s 			page 44


 1289 0074 4000     		lsl	r0, r0, #1
 528:Generated_Source\PSoC4/I2C_1_I2C_MASTER.c ****         }
 1290              		.loc 1 528 0
 1291 0076 0121     		mov	r1, #1
 1292 0078 04E0     		b	.L97
 1293              	.LVL118:
 1294              	.L100:
 512:Generated_Source\PSoC4/I2C_1_I2C_MASTER.c ****         }
 1295              		.loc 1 512 0
 1296 007a 0020     		mov	r0, #0
 463:Generated_Source\PSoC4/I2C_1_I2C_MASTER.c ****     errStatus = I2C_1_I2C_MSTR_NOT_READY;
 1297              		.loc 1 463 0
 1298 007c 0021     		mov	r1, #0
 1299 007e 01E0     		b	.L97
 1300              	.L101:
 516:Generated_Source\PSoC4/I2C_1_I2C_MASTER.c ****         }
 1301              		.loc 1 516 0
 1302 0080 0220     		mov	r0, #2
 463:Generated_Source\PSoC4/I2C_1_I2C_MASTER.c ****     errStatus = I2C_1_I2C_MSTR_NOT_READY;
 1303              		.loc 1 463 0
 1304 0082 0021     		mov	r1, #0
 1305              	.LVL119:
 1306              	.L97:
 531:Generated_Source\PSoC4/I2C_1_I2C_MASTER.c ****                                                     I2C_1_INTR_MASTER_I2C_NACK     |
 1307              		.loc 1 531 0
 1308 0084 0822     		mov	r2, #8
 1309 0086 FF32     		add	r2, r2, #255
 1310 0088 0A4B     		ldr	r3, .L102+8
 1311 008a 1A60     		str	r2, [r3]
 537:Generated_Source\PSoC4/I2C_1_I2C_MASTER.c ****         {
 1312              		.loc 1 537 0
 1313 008c 0029     		cmp	r1, #0
 1314 008e 0BD0     		beq	.L92
 539:Generated_Source\PSoC4/I2C_1_I2C_MASTER.c ****         }
 1315              		.loc 1 539 0
 1316 0090 0B4A     		ldr	r2, .L102+20
 1317 0092 1368     		ldr	r3, [r2]
 1318 0094 5B00     		lsl	r3, r3, #1
 1319 0096 5B08     		lsr	r3, r3, #1
 1320 0098 1360     		str	r3, [r2]
 1321 009a 1368     		ldr	r3, [r2]
 1322 009c 8021     		mov	r1, #128
 1323              	.LVL120:
 1324 009e 0906     		lsl	r1, r1, #24
 1325 00a0 0B43     		orr	r3, r1
 1326 00a2 1360     		str	r3, [r2]
 1327 00a4 00E0     		b	.L92
 1328              	.LVL121:
 1329              	.L99:
 464:Generated_Source\PSoC4/I2C_1_I2C_MASTER.c **** 
 1330              		.loc 1 464 0
 1331 00a6 0420     		mov	r0, #4
 1332              	.LVL122:
 1333              	.L92:
 544:Generated_Source\PSoC4/I2C_1_I2C_MASTER.c **** 
 1334              		.loc 1 544 0
 1335              		@ sp needed
ARM GAS  C:\Users\raymond\AppData\Local\Temp\cc1iXpfr.s 			page 45


 1336 00a8 10BD     		pop	{r4, pc}
 1337              	.L103:
 1338 00aa C046     		.align	2
 1339              	.L102:
 1340 00ac 00000000 		.word	I2C_1_state
 1341 00b0 17030000 		.word	791
 1342 00b4 000F0740 		.word	1074204416
 1343 00b8 68000740 		.word	1074200680
 1344 00bc 40020740 		.word	1074201152
 1345 00c0 00000740 		.word	1074200576
 1346              		.cfi_endproc
 1347              	.LFE4:
 1348              		.size	I2C_1_I2CMasterSendRestart, .-I2C_1_I2CMasterSendRestart
 1349              		.comm	I2C_1_mstrWrBufIndexTmp,4,4
 1350              		.comm	I2C_1_mstrWrBufIndex,4,4
 1351              		.comm	I2C_1_mstrWrBufSize,4,4
 1352              		.comm	I2C_1_mstrWrBufPtr,4,4
 1353              		.comm	I2C_1_mstrRdBufIndex,4,4
 1354              		.comm	I2C_1_mstrRdBufSize,4,4
 1355              		.comm	I2C_1_mstrRdBufPtr,4,4
 1356              		.comm	I2C_1_mstrControl,1,1
 1357              		.comm	I2C_1_mstrStatus,2,2
 1358              		.text
 1359              	.Letext0:
 1360              		.file 2 "Generated_Source\\PSoC4/cytypes.h"
 1361              		.file 3 "Generated_Source\\PSoC4\\I2C_1_I2C_PVT.h"
 1362              		.file 4 "Generated_Source\\PSoC4/CyLib.h"
 1363              		.section	.debug_info,"",%progbits
 1364              	.Ldebug_info0:
 1365 0000 9F050000 		.4byte	0x59f
 1366 0004 0400     		.2byte	0x4
 1367 0006 00000000 		.4byte	.Ldebug_abbrev0
 1368 000a 04       		.byte	0x4
 1369 000b 01       		.uleb128 0x1
 1370 000c D6000000 		.4byte	.LASF51
 1371 0010 01       		.byte	0x1
 1372 0011 58030000 		.4byte	.LASF52
 1373 0015 30020000 		.4byte	.LASF53
 1374 0019 00000000 		.4byte	.Ldebug_ranges0+0
 1375 001d 00000000 		.4byte	0
 1376 0021 00000000 		.4byte	.Ldebug_line0
 1377 0025 02       		.uleb128 0x2
 1378 0026 01       		.byte	0x1
 1379 0027 06       		.byte	0x6
 1380 0028 3C040000 		.4byte	.LASF0
 1381 002c 02       		.uleb128 0x2
 1382 002d 01       		.byte	0x1
 1383 002e 08       		.byte	0x8
 1384 002f C8000000 		.4byte	.LASF1
 1385 0033 02       		.uleb128 0x2
 1386 0034 02       		.byte	0x2
 1387 0035 05       		.byte	0x5
 1388 0036 0C040000 		.4byte	.LASF2
 1389 003a 02       		.uleb128 0x2
 1390 003b 02       		.byte	0x2
 1391 003c 07       		.byte	0x7
 1392 003d 66000000 		.4byte	.LASF3
ARM GAS  C:\Users\raymond\AppData\Local\Temp\cc1iXpfr.s 			page 46


 1393 0041 02       		.uleb128 0x2
 1394 0042 04       		.byte	0x4
 1395 0043 05       		.byte	0x5
 1396 0044 33040000 		.4byte	.LASF4
 1397 0048 02       		.uleb128 0x2
 1398 0049 04       		.byte	0x4
 1399 004a 07       		.byte	0x7
 1400 004b 81010000 		.4byte	.LASF5
 1401 004f 02       		.uleb128 0x2
 1402 0050 08       		.byte	0x8
 1403 0051 05       		.byte	0x5
 1404 0052 A3030000 		.4byte	.LASF6
 1405 0056 02       		.uleb128 0x2
 1406 0057 08       		.byte	0x8
 1407 0058 07       		.byte	0x7
 1408 0059 02030000 		.4byte	.LASF7
 1409 005d 03       		.uleb128 0x3
 1410 005e 04       		.byte	0x4
 1411 005f 05       		.byte	0x5
 1412 0060 696E7400 		.ascii	"int\000"
 1413 0064 02       		.uleb128 0x2
 1414 0065 04       		.byte	0x4
 1415 0066 07       		.byte	0x7
 1416 0067 EE020000 		.4byte	.LASF8
 1417 006b 04       		.uleb128 0x4
 1418 006c AE010000 		.4byte	.LASF9
 1419 0070 02       		.byte	0x2
 1420 0071 B901     		.2byte	0x1b9
 1421 0073 2C000000 		.4byte	0x2c
 1422 0077 04       		.uleb128 0x4
 1423 0078 B7020000 		.4byte	.LASF10
 1424 007c 02       		.byte	0x2
 1425 007d BA01     		.2byte	0x1ba
 1426 007f 3A000000 		.4byte	0x3a
 1427 0083 04       		.uleb128 0x4
 1428 0084 DB020000 		.4byte	.LASF11
 1429 0088 02       		.byte	0x2
 1430 0089 BB01     		.2byte	0x1bb
 1431 008b 48000000 		.4byte	0x48
 1432 008f 02       		.uleb128 0x2
 1433 0090 04       		.byte	0x4
 1434 0091 04       		.byte	0x4
 1435 0092 C2000000 		.4byte	.LASF12
 1436 0096 02       		.uleb128 0x2
 1437 0097 08       		.byte	0x8
 1438 0098 04       		.byte	0x4
 1439 0099 C6010000 		.4byte	.LASF13
 1440 009d 02       		.uleb128 0x2
 1441 009e 01       		.byte	0x1
 1442 009f 08       		.byte	0x8
 1443 00a0 C9030000 		.4byte	.LASF14
 1444 00a4 05       		.uleb128 0x5
 1445 00a5 6B000000 		.4byte	0x6b
 1446 00a9 05       		.uleb128 0x5
 1447 00aa 77000000 		.4byte	0x77
 1448 00ae 04       		.uleb128 0x4
 1449 00af 00000000 		.4byte	.LASF15
ARM GAS  C:\Users\raymond\AppData\Local\Temp\cc1iXpfr.s 			page 47


 1450 00b3 02       		.byte	0x2
 1451 00b4 6502     		.2byte	0x265
 1452 00b6 BA000000 		.4byte	0xba
 1453 00ba 05       		.uleb128 0x5
 1454 00bb 83000000 		.4byte	0x83
 1455 00bf 02       		.uleb128 0x2
 1456 00c0 04       		.byte	0x4
 1457 00c1 07       		.byte	0x7
 1458 00c2 9A030000 		.4byte	.LASF16
 1459 00c6 06       		.uleb128 0x6
 1460 00c7 19030000 		.4byte	.LASF21
 1461 00cb 01       		.byte	0x1
 1462 00cc 4E01     		.2byte	0x14e
 1463 00ce 83000000 		.4byte	0x83
 1464 00d2 00000000 		.4byte	.LFB3
 1465 00d6 D8000000 		.4byte	.LFE3-.LFB3
 1466 00da 01       		.uleb128 0x1
 1467 00db 9C       		.byte	0x9c
 1468 00dc 30010000 		.4byte	0x130
 1469 00e0 07       		.uleb128 0x7
 1470 00e1 37030000 		.4byte	.LASF17
 1471 00e5 01       		.byte	0x1
 1472 00e6 4E01     		.2byte	0x14e
 1473 00e8 83000000 		.4byte	0x83
 1474 00ec 00000000 		.4byte	.LLST0
 1475 00f0 07       		.uleb128 0x7
 1476 00f1 EA010000 		.4byte	.LASF18
 1477 00f5 01       		.byte	0x1
 1478 00f6 4E01     		.2byte	0x14e
 1479 00f8 83000000 		.4byte	0x83
 1480 00fc 6E000000 		.4byte	.LLST1
 1481 0100 08       		.uleb128 0x8
 1482 0101 9E000000 		.4byte	.LASF19
 1483 0105 01       		.byte	0x1
 1484 0106 5001     		.2byte	0x150
 1485 0108 83000000 		.4byte	0x83
 1486 010c A5000000 		.4byte	.LLST2
 1487 0110 08       		.uleb128 0x8
 1488 0111 BC010000 		.4byte	.LASF20
 1489 0115 01       		.byte	0x1
 1490 0116 5101     		.2byte	0x151
 1491 0118 83000000 		.4byte	0x83
 1492 011c 00010000 		.4byte	.LLST3
 1493 0120 09       		.uleb128 0x9
 1494 0121 1C000000 		.4byte	.LVL3
 1495 0125 84050000 		.4byte	0x584
 1496 0129 0A       		.uleb128 0xa
 1497 012a 01       		.uleb128 0x1
 1498 012b 50       		.byte	0x50
 1499 012c 01       		.uleb128 0x1
 1500 012d 38       		.byte	0x38
 1501 012e 00       		.byte	0
 1502 012f 00       		.byte	0
 1503 0130 06       		.uleb128 0x6
 1504 0131 B1030000 		.4byte	.LASF22
 1505 0135 01       		.byte	0x1
 1506 0136 3D02     		.2byte	0x23d
ARM GAS  C:\Users\raymond\AppData\Local\Temp\cc1iXpfr.s 			page 48


 1507 0138 83000000 		.4byte	0x83
 1508 013c 00000000 		.4byte	.LFB5
 1509 0140 8C000000 		.4byte	.LFE5-.LFB5
 1510 0144 01       		.uleb128 0x1
 1511 0145 9C       		.byte	0x9c
 1512 0146 6B010000 		.4byte	0x16b
 1513 014a 08       		.uleb128 0x8
 1514 014b 9E000000 		.4byte	.LASF19
 1515 014f 01       		.byte	0x1
 1516 0150 3F02     		.2byte	0x23f
 1517 0152 83000000 		.4byte	0x83
 1518 0156 68010000 		.4byte	.LLST4
 1519 015a 08       		.uleb128 0x8
 1520 015b BC010000 		.4byte	.LASF20
 1521 015f 01       		.byte	0x1
 1522 0160 4002     		.2byte	0x240
 1523 0162 83000000 		.4byte	0x83
 1524 0166 93010000 		.4byte	.LLST5
 1525 016a 00       		.byte	0
 1526 016b 06       		.uleb128 0x6
 1527 016c 68010000 		.4byte	.LASF23
 1528 0170 01       		.byte	0x1
 1529 0171 8D02     		.2byte	0x28d
 1530 0173 83000000 		.4byte	0x83
 1531 0177 00000000 		.4byte	.LFB6
 1532 017b 98000000 		.4byte	.LFE6-.LFB6
 1533 017f 01       		.uleb128 0x1
 1534 0180 9C       		.byte	0x9c
 1535 0181 B6010000 		.4byte	0x1b6
 1536 0185 07       		.uleb128 0x7
 1537 0186 16040000 		.4byte	.LASF24
 1538 018a 01       		.byte	0x1
 1539 018b 8D02     		.2byte	0x28d
 1540 018d 83000000 		.4byte	0x83
 1541 0191 C9010000 		.4byte	.LLST6
 1542 0195 08       		.uleb128 0x8
 1543 0196 9E000000 		.4byte	.LASF19
 1544 019a 01       		.byte	0x1
 1545 019b 8F02     		.2byte	0x28f
 1546 019d 83000000 		.4byte	0x83
 1547 01a1 4E020000 		.4byte	.LLST7
 1548 01a5 08       		.uleb128 0x8
 1549 01a6 BC010000 		.4byte	.LASF20
 1550 01aa 01       		.byte	0x1
 1551 01ab 9002     		.2byte	0x290
 1552 01ad 83000000 		.4byte	0x83
 1553 01b1 9D020000 		.4byte	.LLST8
 1554 01b5 00       		.byte	0
 1555 01b6 06       		.uleb128 0x6
 1556 01b7 82030000 		.4byte	.LASF25
 1557 01bb 01       		.byte	0x1
 1558 01bc E802     		.2byte	0x2e8
 1559 01be 83000000 		.4byte	0x83
 1560 01c2 00000000 		.4byte	.LFB7
 1561 01c6 84000000 		.4byte	.LFE7-.LFB7
 1562 01ca 01       		.uleb128 0x1
 1563 01cb 9C       		.byte	0x9c
ARM GAS  C:\Users\raymond\AppData\Local\Temp\cc1iXpfr.s 			page 49


 1564 01cc F1010000 		.4byte	0x1f1
 1565 01d0 07       		.uleb128 0x7
 1566 01d1 B4010000 		.4byte	.LASF26
 1567 01d5 01       		.byte	0x1
 1568 01d6 E802     		.2byte	0x2e8
 1569 01d8 83000000 		.4byte	0x83
 1570 01dc 29030000 		.4byte	.LLST9
 1571 01e0 08       		.uleb128 0x8
 1572 01e1 16040000 		.4byte	.LASF24
 1573 01e5 01       		.byte	0x1
 1574 01e6 EA02     		.2byte	0x2ea
 1575 01e8 83000000 		.4byte	0x83
 1576 01ec 84030000 		.4byte	.LLST10
 1577 01f0 00       		.byte	0
 1578 01f1 0B       		.uleb128 0xb
 1579 01f2 EE030000 		.4byte	.LASF27
 1580 01f6 01       		.byte	0x1
 1581 01f7 2C03     		.2byte	0x32c
 1582 01f9 83000000 		.4byte	0x83
 1583 01fd 00000000 		.4byte	.LFB8
 1584 0201 0C000000 		.4byte	.LFE8-.LFB8
 1585 0205 01       		.uleb128 0x1
 1586 0206 9C       		.byte	0x9c
 1587 0207 0B       		.uleb128 0xb
 1588 0208 06000000 		.4byte	.LASF28
 1589 020c 01       		.byte	0x1
 1590 020d 4703     		.2byte	0x347
 1591 020f 83000000 		.4byte	0x83
 1592 0213 00000000 		.4byte	.LFB9
 1593 0217 0C000000 		.4byte	.LFE9-.LFB9
 1594 021b 01       		.uleb128 0x1
 1595 021c 9C       		.byte	0x9c
 1596 021d 0C       		.uleb128 0xc
 1597 021e A6000000 		.4byte	.LASF29
 1598 0222 01       		.byte	0x1
 1599 0223 5903     		.2byte	0x359
 1600 0225 00000000 		.4byte	.LFB10
 1601 0229 28000000 		.4byte	.LFE10-.LFB10
 1602 022d 01       		.uleb128 0x1
 1603 022e 9C       		.byte	0x9c
 1604 022f 56020000 		.4byte	0x256
 1605 0233 0D       		.uleb128 0xd
 1606 0234 08000000 		.4byte	.LVL50
 1607 0238 84050000 		.4byte	0x584
 1608 023c 46020000 		.4byte	0x246
 1609 0240 0A       		.uleb128 0xa
 1610 0241 01       		.uleb128 0x1
 1611 0242 50       		.byte	0x50
 1612 0243 01       		.uleb128 0x1
 1613 0244 38       		.byte	0x38
 1614 0245 00       		.byte	0
 1615 0246 09       		.uleb128 0x9
 1616 0247 1E000000 		.4byte	.LVL51
 1617 024b 95050000 		.4byte	0x595
 1618 024f 0A       		.uleb128 0xa
 1619 0250 01       		.uleb128 0x1
 1620 0251 50       		.byte	0x50
ARM GAS  C:\Users\raymond\AppData\Local\Temp\cc1iXpfr.s 			page 50


 1621 0252 01       		.uleb128 0x1
 1622 0253 38       		.byte	0x38
 1623 0254 00       		.byte	0
 1624 0255 00       		.byte	0
 1625 0256 0C       		.uleb128 0xc
 1626 0257 CD010000 		.4byte	.LASF30
 1627 025b 01       		.byte	0x1
 1628 025c 7003     		.2byte	0x370
 1629 025e 00000000 		.4byte	.LFB11
 1630 0262 28000000 		.4byte	.LFE11-.LFB11
 1631 0266 01       		.uleb128 0x1
 1632 0267 9C       		.byte	0x9c
 1633 0268 8F020000 		.4byte	0x28f
 1634 026c 0D       		.uleb128 0xd
 1635 026d 08000000 		.4byte	.LVL52
 1636 0271 84050000 		.4byte	0x584
 1637 0275 7F020000 		.4byte	0x27f
 1638 0279 0A       		.uleb128 0xa
 1639 027a 01       		.uleb128 0x1
 1640 027b 50       		.byte	0x50
 1641 027c 01       		.uleb128 0x1
 1642 027d 38       		.byte	0x38
 1643 027e 00       		.byte	0
 1644 027f 09       		.uleb128 0x9
 1645 0280 1E000000 		.4byte	.LVL53
 1646 0284 95050000 		.4byte	0x595
 1647 0288 0A       		.uleb128 0xa
 1648 0289 01       		.uleb128 0x1
 1649 028a 50       		.byte	0x50
 1650 028b 01       		.uleb128 0x1
 1651 028c 38       		.byte	0x38
 1652 028d 00       		.byte	0
 1653 028e 00       		.byte	0
 1654 028f 06       		.uleb128 0x6
 1655 0290 BE020000 		.4byte	.LASF31
 1656 0294 01       		.byte	0x1
 1657 0295 A403     		.2byte	0x3a4
 1658 0297 83000000 		.4byte	0x83
 1659 029b 00000000 		.4byte	.LFB12
 1660 029f 30000000 		.4byte	.LFE12-.LFB12
 1661 02a3 01       		.uleb128 0x1
 1662 02a4 9C       		.byte	0x9c
 1663 02a5 DC020000 		.4byte	0x2dc
 1664 02a9 08       		.uleb128 0x8
 1665 02aa 25000000 		.4byte	.LASF32
 1666 02ae 01       		.byte	0x1
 1667 02af A603     		.2byte	0x3a6
 1668 02b1 83000000 		.4byte	0x83
 1669 02b5 BC030000 		.4byte	.LLST11
 1670 02b9 0D       		.uleb128 0xd
 1671 02ba 08000000 		.4byte	.LVL54
 1672 02be 84050000 		.4byte	0x584
 1673 02c2 CC020000 		.4byte	0x2cc
 1674 02c6 0A       		.uleb128 0xa
 1675 02c7 01       		.uleb128 0x1
 1676 02c8 50       		.byte	0x50
 1677 02c9 01       		.uleb128 0x1
ARM GAS  C:\Users\raymond\AppData\Local\Temp\cc1iXpfr.s 			page 51


 1678 02ca 38       		.byte	0x38
 1679 02cb 00       		.byte	0
 1680 02cc 09       		.uleb128 0x9
 1681 02cd 22000000 		.4byte	.LVL57
 1682 02d1 95050000 		.4byte	0x595
 1683 02d5 0A       		.uleb128 0xa
 1684 02d6 01       		.uleb128 0x1
 1685 02d7 50       		.byte	0x50
 1686 02d8 01       		.uleb128 0x1
 1687 02d9 38       		.byte	0x38
 1688 02da 00       		.byte	0
 1689 02db 00       		.byte	0
 1690 02dc 06       		.uleb128 0x6
 1691 02dd 93010000 		.4byte	.LASF33
 1692 02e1 01       		.byte	0x1
 1693 02e2 C603     		.2byte	0x3c6
 1694 02e4 83000000 		.4byte	0x83
 1695 02e8 00000000 		.4byte	.LFB13
 1696 02ec 20000000 		.4byte	.LFE13-.LFB13
 1697 02f0 01       		.uleb128 0x1
 1698 02f1 9C       		.byte	0x9c
 1699 02f2 29030000 		.4byte	0x329
 1700 02f6 08       		.uleb128 0x8
 1701 02f7 25000000 		.4byte	.LASF32
 1702 02fb 01       		.byte	0x1
 1703 02fc C803     		.2byte	0x3c8
 1704 02fe 83000000 		.4byte	0x83
 1705 0302 E5030000 		.4byte	.LLST12
 1706 0306 0D       		.uleb128 0xd
 1707 0307 08000000 		.4byte	.LVL59
 1708 030b 84050000 		.4byte	0x584
 1709 030f 19030000 		.4byte	0x319
 1710 0313 0A       		.uleb128 0xa
 1711 0314 01       		.uleb128 0x1
 1712 0315 50       		.byte	0x50
 1713 0316 01       		.uleb128 0x1
 1714 0317 38       		.byte	0x38
 1715 0318 00       		.byte	0
 1716 0319 09       		.uleb128 0x9
 1717 031a 18000000 		.4byte	.LVL61
 1718 031e 95050000 		.4byte	0x595
 1719 0322 0A       		.uleb128 0xa
 1720 0323 01       		.uleb128 0x1
 1721 0324 50       		.byte	0x50
 1722 0325 01       		.uleb128 0x1
 1723 0326 38       		.byte	0x38
 1724 0327 00       		.byte	0
 1725 0328 00       		.byte	0
 1726 0329 0C       		.uleb128 0xc
 1727 032a F1010000 		.4byte	.LASF34
 1728 032e 01       		.byte	0x1
 1729 032f F203     		.2byte	0x3f2
 1730 0331 00000000 		.4byte	.LFB14
 1731 0335 20000000 		.4byte	.LFE14-.LFB14
 1732 0339 01       		.uleb128 0x1
 1733 033a 9C       		.byte	0x9c
 1734 033b 50030000 		.4byte	0x350
ARM GAS  C:\Users\raymond\AppData\Local\Temp\cc1iXpfr.s 			page 52


 1735 033f 0E       		.uleb128 0xe
 1736 0340 636D6400 		.ascii	"cmd\000"
 1737 0344 01       		.byte	0x1
 1738 0345 2604     		.2byte	0x426
 1739 0347 83000000 		.4byte	0x83
 1740 034b 03040000 		.4byte	.LLST13
 1741 034f 00       		.byte	0
 1742 0350 0F       		.uleb128 0xf
 1743 0351 7A040000 		.4byte	.LASF35
 1744 0355 01       		.byte	0x1
 1745 0356 62       		.byte	0x62
 1746 0357 83000000 		.4byte	0x83
 1747 035b 00000000 		.4byte	.LFB1
 1748 035f EC000000 		.4byte	.LFE1-.LFB1
 1749 0363 01       		.uleb128 0x1
 1750 0364 9C       		.byte	0x9c
 1751 0365 E0030000 		.4byte	0x3e0
 1752 0369 10       		.uleb128 0x10
 1753 036a 37030000 		.4byte	.LASF17
 1754 036e 01       		.byte	0x1
 1755 036f 62       		.byte	0x62
 1756 0370 83000000 		.4byte	0x83
 1757 0374 22040000 		.4byte	.LLST14
 1758 0378 10       		.uleb128 0x10
 1759 0379 FB020000 		.4byte	.LASF36
 1760 037d 01       		.byte	0x1
 1761 037e 62       		.byte	0x62
 1762 037f E0030000 		.4byte	0x3e0
 1763 0383 63040000 		.4byte	.LLST15
 1764 0387 11       		.uleb128 0x11
 1765 0388 636E7400 		.ascii	"cnt\000"
 1766 038c 01       		.byte	0x1
 1767 038d 62       		.byte	0x62
 1768 038e 83000000 		.4byte	0x83
 1769 0392 CA040000 		.4byte	.LLST16
 1770 0396 10       		.uleb128 0x10
 1771 0397 32030000 		.4byte	.LASF37
 1772 039b 01       		.byte	0x1
 1773 039c 62       		.byte	0x62
 1774 039d 83000000 		.4byte	0x83
 1775 03a1 22050000 		.4byte	.LLST17
 1776 03a5 12       		.uleb128 0x12
 1777 03a6 BC010000 		.4byte	.LASF20
 1778 03aa 01       		.byte	0x1
 1779 03ab 64       		.byte	0x64
 1780 03ac 83000000 		.4byte	0x83
 1781 03b0 64050000 		.4byte	.LLST18
 1782 03b4 0D       		.uleb128 0xd
 1783 03b5 1E000000 		.4byte	.LVL69
 1784 03b9 84050000 		.4byte	0x584
 1785 03bd C7030000 		.4byte	0x3c7
 1786 03c1 0A       		.uleb128 0xa
 1787 03c2 01       		.uleb128 0x1
 1788 03c3 50       		.byte	0x50
 1789 03c4 01       		.uleb128 0x1
 1790 03c5 38       		.byte	0x38
 1791 03c6 00       		.byte	0
ARM GAS  C:\Users\raymond\AppData\Local\Temp\cc1iXpfr.s 			page 53


 1792 03c7 13       		.uleb128 0x13
 1793 03c8 96000000 		.4byte	.LVL81
 1794 03cc 29030000 		.4byte	0x329
 1795 03d0 09       		.uleb128 0x9
 1796 03d1 AC000000 		.4byte	.LVL83
 1797 03d5 95050000 		.4byte	0x595
 1798 03d9 0A       		.uleb128 0xa
 1799 03da 01       		.uleb128 0x1
 1800 03db 50       		.byte	0x50
 1801 03dc 01       		.uleb128 0x1
 1802 03dd 38       		.byte	0x38
 1803 03de 00       		.byte	0
 1804 03df 00       		.byte	0
 1805 03e0 14       		.uleb128 0x14
 1806 03e1 04       		.byte	0x4
 1807 03e2 6B000000 		.4byte	0x6b
 1808 03e6 0F       		.uleb128 0xf
 1809 03e7 63040000 		.4byte	.LASF38
 1810 03eb 01       		.byte	0x1
 1811 03ec D1       		.byte	0xd1
 1812 03ed 83000000 		.4byte	0x83
 1813 03f1 00000000 		.4byte	.LFB2
 1814 03f5 FC000000 		.4byte	.LFE2-.LFB2
 1815 03f9 01       		.uleb128 0x1
 1816 03fa 9C       		.byte	0x9c
 1817 03fb 76040000 		.4byte	0x476
 1818 03ff 10       		.uleb128 0x10
 1819 0400 37030000 		.4byte	.LASF17
 1820 0404 01       		.byte	0x1
 1821 0405 D1       		.byte	0xd1
 1822 0406 83000000 		.4byte	0x83
 1823 040a BE050000 		.4byte	.LLST19
 1824 040e 10       		.uleb128 0x10
 1825 040f D4020000 		.4byte	.LASF39
 1826 0413 01       		.byte	0x1
 1827 0414 D1       		.byte	0xd1
 1828 0415 E0030000 		.4byte	0x3e0
 1829 0419 FF050000 		.4byte	.LLST20
 1830 041d 11       		.uleb128 0x11
 1831 041e 636E7400 		.ascii	"cnt\000"
 1832 0422 01       		.byte	0x1
 1833 0423 D1       		.byte	0xd1
 1834 0424 83000000 		.4byte	0x83
 1835 0428 66060000 		.4byte	.LLST21
 1836 042c 10       		.uleb128 0x10
 1837 042d 32030000 		.4byte	.LASF37
 1838 0431 01       		.byte	0x1
 1839 0432 D1       		.byte	0xd1
 1840 0433 83000000 		.4byte	0x83
 1841 0437 BE060000 		.4byte	.LLST22
 1842 043b 12       		.uleb128 0x12
 1843 043c BC010000 		.4byte	.LASF20
 1844 0440 01       		.byte	0x1
 1845 0441 D3       		.byte	0xd3
 1846 0442 83000000 		.4byte	0x83
 1847 0446 00070000 		.4byte	.LLST23
 1848 044a 0D       		.uleb128 0xd
ARM GAS  C:\Users\raymond\AppData\Local\Temp\cc1iXpfr.s 			page 54


 1849 044b 1E000000 		.4byte	.LVL91
 1850 044f 84050000 		.4byte	0x584
 1851 0453 5D040000 		.4byte	0x45d
 1852 0457 0A       		.uleb128 0xa
 1853 0458 01       		.uleb128 0x1
 1854 0459 50       		.byte	0x50
 1855 045a 01       		.uleb128 0x1
 1856 045b 38       		.byte	0x38
 1857 045c 00       		.byte	0
 1858 045d 13       		.uleb128 0x13
 1859 045e AA000000 		.4byte	.LVL103
 1860 0462 29030000 		.4byte	0x329
 1861 0466 09       		.uleb128 0x9
 1862 0467 C0000000 		.4byte	.LVL105
 1863 046b 95050000 		.4byte	0x595
 1864 046f 0A       		.uleb128 0xa
 1865 0470 01       		.uleb128 0x1
 1866 0471 50       		.byte	0x50
 1867 0472 01       		.uleb128 0x1
 1868 0473 38       		.byte	0x38
 1869 0474 00       		.byte	0
 1870 0475 00       		.byte	0
 1871 0476 06       		.uleb128 0x6
 1872 0477 48040000 		.4byte	.LASF40
 1873 047b 01       		.byte	0x1
 1874 047c CA01     		.2byte	0x1ca
 1875 047e 83000000 		.4byte	0x83
 1876 0482 00000000 		.4byte	.LFB4
 1877 0486 C4000000 		.4byte	.LFE4-.LFB4
 1878 048a 01       		.uleb128 0x1
 1879 048b 9C       		.byte	0x9c
 1880 048c DA040000 		.4byte	0x4da
 1881 0490 07       		.uleb128 0x7
 1882 0491 37030000 		.4byte	.LASF17
 1883 0495 01       		.byte	0x1
 1884 0496 CA01     		.2byte	0x1ca
 1885 0498 83000000 		.4byte	0x83
 1886 049c 5A070000 		.4byte	.LLST24
 1887 04a0 07       		.uleb128 0x7
 1888 04a1 EA010000 		.4byte	.LASF18
 1889 04a5 01       		.byte	0x1
 1890 04a6 CA01     		.2byte	0x1ca
 1891 04a8 83000000 		.4byte	0x83
 1892 04ac 91070000 		.4byte	.LLST25
 1893 04b0 08       		.uleb128 0x8
 1894 04b1 9E000000 		.4byte	.LASF19
 1895 04b5 01       		.byte	0x1
 1896 04b6 CC01     		.2byte	0x1cc
 1897 04b8 83000000 		.4byte	0x83
 1898 04bc CB070000 		.4byte	.LLST26
 1899 04c0 08       		.uleb128 0x8
 1900 04c1 BC010000 		.4byte	.LASF20
 1901 04c5 01       		.byte	0x1
 1902 04c6 CD01     		.2byte	0x1cd
 1903 04c8 83000000 		.4byte	0x83
 1904 04cc 26080000 		.4byte	.LLST27
 1905 04d0 13       		.uleb128 0x13
ARM GAS  C:\Users\raymond\AppData\Local\Temp\cc1iXpfr.s 			page 55


 1906 04d1 30000000 		.4byte	.LVL114
 1907 04d5 29030000 		.4byte	0x329
 1908 04d9 00       		.byte	0
 1909 04da 15       		.uleb128 0x15
 1910 04db E2020000 		.4byte	.LASF41
 1911 04df 03       		.byte	0x3
 1912 04e0 1E       		.byte	0x1e
 1913 04e1 A4000000 		.4byte	0xa4
 1914 04e5 16       		.uleb128 0x16
 1915 04e6 8D000000 		.4byte	.LASF42
 1916 04ea 01       		.byte	0x1
 1917 04eb 1D       		.byte	0x1d
 1918 04ec A9000000 		.4byte	0xa9
 1919 04f0 05       		.uleb128 0x5
 1920 04f1 03       		.byte	0x3
 1921 04f2 00000000 		.4byte	I2C_1_mstrStatus
 1922 04f6 16       		.uleb128 0x16
 1923 04f7 41000000 		.4byte	.LASF43
 1924 04fb 01       		.byte	0x1
 1925 04fc 1E       		.byte	0x1e
 1926 04fd A4000000 		.4byte	0xa4
 1927 0501 05       		.uleb128 0x5
 1928 0502 03       		.byte	0x3
 1929 0503 00000000 		.4byte	I2C_1_mstrControl
 1930 0507 16       		.uleb128 0x16
 1931 0508 CE030000 		.4byte	.LASF44
 1932 050c 01       		.byte	0x1
 1933 050d 21       		.byte	0x21
 1934 050e 18050000 		.4byte	0x518
 1935 0512 05       		.uleb128 0x5
 1936 0513 03       		.byte	0x3
 1937 0514 00000000 		.4byte	I2C_1_mstrRdBufPtr
 1938 0518 14       		.uleb128 0x14
 1939 0519 04       		.byte	0x4
 1940 051a A4000000 		.4byte	0xa4
 1941 051e 16       		.uleb128 0x16
 1942 051f 44030000 		.4byte	.LASF45
 1943 0523 01       		.byte	0x1
 1944 0524 22       		.byte	0x22
 1945 0525 BA000000 		.4byte	0xba
 1946 0529 05       		.uleb128 0x5
 1947 052a 03       		.byte	0x3
 1948 052b 00000000 		.4byte	I2C_1_mstrRdBufSize
 1949 052f 16       		.uleb128 0x16
 1950 0530 2C000000 		.4byte	.LASF46
 1951 0534 01       		.byte	0x1
 1952 0535 23       		.byte	0x23
 1953 0536 BA000000 		.4byte	0xba
 1954 053a 05       		.uleb128 0x5
 1955 053b 03       		.byte	0x3
 1956 053c 00000000 		.4byte	I2C_1_mstrRdBufIndex
 1957 0540 16       		.uleb128 0x16
 1958 0541 53000000 		.4byte	.LASF47
 1959 0545 01       		.byte	0x1
 1960 0546 26       		.byte	0x26
 1961 0547 18050000 		.4byte	0x518
 1962 054b 05       		.uleb128 0x5
ARM GAS  C:\Users\raymond\AppData\Local\Temp\cc1iXpfr.s 			page 56


 1963 054c 03       		.byte	0x3
 1964 054d 00000000 		.4byte	I2C_1_mstrWrBufPtr
 1965 0551 16       		.uleb128 0x16
 1966 0552 79000000 		.4byte	.LASF48
 1967 0556 01       		.byte	0x1
 1968 0557 27       		.byte	0x27
 1969 0558 BA000000 		.4byte	0xba
 1970 055c 05       		.uleb128 0x5
 1971 055d 03       		.byte	0x3
 1972 055e 00000000 		.4byte	I2C_1_mstrWrBufSize
 1973 0562 16       		.uleb128 0x16
 1974 0563 1E040000 		.4byte	.LASF49
 1975 0567 01       		.byte	0x1
 1976 0568 28       		.byte	0x28
 1977 0569 BA000000 		.4byte	0xba
 1978 056d 05       		.uleb128 0x5
 1979 056e 03       		.byte	0x3
 1980 056f 00000000 		.4byte	I2C_1_mstrWrBufIndex
 1981 0573 16       		.uleb128 0x16
 1982 0574 18020000 		.4byte	.LASF50
 1983 0578 01       		.byte	0x1
 1984 0579 29       		.byte	0x29
 1985 057a BA000000 		.4byte	0xba
 1986 057e 05       		.uleb128 0x5
 1987 057f 03       		.byte	0x3
 1988 0580 00000000 		.4byte	I2C_1_mstrWrBufIndexTmp
 1989 0584 17       		.uleb128 0x17
 1990 0585 E1030000 		.4byte	.LASF54
 1991 0589 04       		.byte	0x4
 1992 058a C5       		.byte	0xc5
 1993 058b 95050000 		.4byte	0x595
 1994 058f 18       		.uleb128 0x18
 1995 0590 6B000000 		.4byte	0x6b
 1996 0594 00       		.byte	0
 1997 0595 19       		.uleb128 0x19
 1998 0596 0C020000 		.4byte	.LASF55
 1999 059a 04       		.byte	0x4
 2000 059b C3       		.byte	0xc3
 2001 059c 18       		.uleb128 0x18
 2002 059d 6B000000 		.4byte	0x6b
 2003 05a1 00       		.byte	0
 2004 05a2 00       		.byte	0
 2005              		.section	.debug_abbrev,"",%progbits
 2006              	.Ldebug_abbrev0:
 2007 0000 01       		.uleb128 0x1
 2008 0001 11       		.uleb128 0x11
 2009 0002 01       		.byte	0x1
 2010 0003 25       		.uleb128 0x25
 2011 0004 0E       		.uleb128 0xe
 2012 0005 13       		.uleb128 0x13
 2013 0006 0B       		.uleb128 0xb
 2014 0007 03       		.uleb128 0x3
 2015 0008 0E       		.uleb128 0xe
 2016 0009 1B       		.uleb128 0x1b
 2017 000a 0E       		.uleb128 0xe
 2018 000b 55       		.uleb128 0x55
 2019 000c 17       		.uleb128 0x17
ARM GAS  C:\Users\raymond\AppData\Local\Temp\cc1iXpfr.s 			page 57


 2020 000d 11       		.uleb128 0x11
 2021 000e 01       		.uleb128 0x1
 2022 000f 10       		.uleb128 0x10
 2023 0010 17       		.uleb128 0x17
 2024 0011 00       		.byte	0
 2025 0012 00       		.byte	0
 2026 0013 02       		.uleb128 0x2
 2027 0014 24       		.uleb128 0x24
 2028 0015 00       		.byte	0
 2029 0016 0B       		.uleb128 0xb
 2030 0017 0B       		.uleb128 0xb
 2031 0018 3E       		.uleb128 0x3e
 2032 0019 0B       		.uleb128 0xb
 2033 001a 03       		.uleb128 0x3
 2034 001b 0E       		.uleb128 0xe
 2035 001c 00       		.byte	0
 2036 001d 00       		.byte	0
 2037 001e 03       		.uleb128 0x3
 2038 001f 24       		.uleb128 0x24
 2039 0020 00       		.byte	0
 2040 0021 0B       		.uleb128 0xb
 2041 0022 0B       		.uleb128 0xb
 2042 0023 3E       		.uleb128 0x3e
 2043 0024 0B       		.uleb128 0xb
 2044 0025 03       		.uleb128 0x3
 2045 0026 08       		.uleb128 0x8
 2046 0027 00       		.byte	0
 2047 0028 00       		.byte	0
 2048 0029 04       		.uleb128 0x4
 2049 002a 16       		.uleb128 0x16
 2050 002b 00       		.byte	0
 2051 002c 03       		.uleb128 0x3
 2052 002d 0E       		.uleb128 0xe
 2053 002e 3A       		.uleb128 0x3a
 2054 002f 0B       		.uleb128 0xb
 2055 0030 3B       		.uleb128 0x3b
 2056 0031 05       		.uleb128 0x5
 2057 0032 49       		.uleb128 0x49
 2058 0033 13       		.uleb128 0x13
 2059 0034 00       		.byte	0
 2060 0035 00       		.byte	0
 2061 0036 05       		.uleb128 0x5
 2062 0037 35       		.uleb128 0x35
 2063 0038 00       		.byte	0
 2064 0039 49       		.uleb128 0x49
 2065 003a 13       		.uleb128 0x13
 2066 003b 00       		.byte	0
 2067 003c 00       		.byte	0
 2068 003d 06       		.uleb128 0x6
 2069 003e 2E       		.uleb128 0x2e
 2070 003f 01       		.byte	0x1
 2071 0040 3F       		.uleb128 0x3f
 2072 0041 19       		.uleb128 0x19
 2073 0042 03       		.uleb128 0x3
 2074 0043 0E       		.uleb128 0xe
 2075 0044 3A       		.uleb128 0x3a
 2076 0045 0B       		.uleb128 0xb
ARM GAS  C:\Users\raymond\AppData\Local\Temp\cc1iXpfr.s 			page 58


 2077 0046 3B       		.uleb128 0x3b
 2078 0047 05       		.uleb128 0x5
 2079 0048 27       		.uleb128 0x27
 2080 0049 19       		.uleb128 0x19
 2081 004a 49       		.uleb128 0x49
 2082 004b 13       		.uleb128 0x13
 2083 004c 11       		.uleb128 0x11
 2084 004d 01       		.uleb128 0x1
 2085 004e 12       		.uleb128 0x12
 2086 004f 06       		.uleb128 0x6
 2087 0050 40       		.uleb128 0x40
 2088 0051 18       		.uleb128 0x18
 2089 0052 9742     		.uleb128 0x2117
 2090 0054 19       		.uleb128 0x19
 2091 0055 01       		.uleb128 0x1
 2092 0056 13       		.uleb128 0x13
 2093 0057 00       		.byte	0
 2094 0058 00       		.byte	0
 2095 0059 07       		.uleb128 0x7
 2096 005a 05       		.uleb128 0x5
 2097 005b 00       		.byte	0
 2098 005c 03       		.uleb128 0x3
 2099 005d 0E       		.uleb128 0xe
 2100 005e 3A       		.uleb128 0x3a
 2101 005f 0B       		.uleb128 0xb
 2102 0060 3B       		.uleb128 0x3b
 2103 0061 05       		.uleb128 0x5
 2104 0062 49       		.uleb128 0x49
 2105 0063 13       		.uleb128 0x13
 2106 0064 02       		.uleb128 0x2
 2107 0065 17       		.uleb128 0x17
 2108 0066 00       		.byte	0
 2109 0067 00       		.byte	0
 2110 0068 08       		.uleb128 0x8
 2111 0069 34       		.uleb128 0x34
 2112 006a 00       		.byte	0
 2113 006b 03       		.uleb128 0x3
 2114 006c 0E       		.uleb128 0xe
 2115 006d 3A       		.uleb128 0x3a
 2116 006e 0B       		.uleb128 0xb
 2117 006f 3B       		.uleb128 0x3b
 2118 0070 05       		.uleb128 0x5
 2119 0071 49       		.uleb128 0x49
 2120 0072 13       		.uleb128 0x13
 2121 0073 02       		.uleb128 0x2
 2122 0074 17       		.uleb128 0x17
 2123 0075 00       		.byte	0
 2124 0076 00       		.byte	0
 2125 0077 09       		.uleb128 0x9
 2126 0078 898201   		.uleb128 0x4109
 2127 007b 01       		.byte	0x1
 2128 007c 11       		.uleb128 0x11
 2129 007d 01       		.uleb128 0x1
 2130 007e 31       		.uleb128 0x31
 2131 007f 13       		.uleb128 0x13
 2132 0080 00       		.byte	0
 2133 0081 00       		.byte	0
ARM GAS  C:\Users\raymond\AppData\Local\Temp\cc1iXpfr.s 			page 59


 2134 0082 0A       		.uleb128 0xa
 2135 0083 8A8201   		.uleb128 0x410a
 2136 0086 00       		.byte	0
 2137 0087 02       		.uleb128 0x2
 2138 0088 18       		.uleb128 0x18
 2139 0089 9142     		.uleb128 0x2111
 2140 008b 18       		.uleb128 0x18
 2141 008c 00       		.byte	0
 2142 008d 00       		.byte	0
 2143 008e 0B       		.uleb128 0xb
 2144 008f 2E       		.uleb128 0x2e
 2145 0090 00       		.byte	0
 2146 0091 3F       		.uleb128 0x3f
 2147 0092 19       		.uleb128 0x19
 2148 0093 03       		.uleb128 0x3
 2149 0094 0E       		.uleb128 0xe
 2150 0095 3A       		.uleb128 0x3a
 2151 0096 0B       		.uleb128 0xb
 2152 0097 3B       		.uleb128 0x3b
 2153 0098 05       		.uleb128 0x5
 2154 0099 27       		.uleb128 0x27
 2155 009a 19       		.uleb128 0x19
 2156 009b 49       		.uleb128 0x49
 2157 009c 13       		.uleb128 0x13
 2158 009d 11       		.uleb128 0x11
 2159 009e 01       		.uleb128 0x1
 2160 009f 12       		.uleb128 0x12
 2161 00a0 06       		.uleb128 0x6
 2162 00a1 40       		.uleb128 0x40
 2163 00a2 18       		.uleb128 0x18
 2164 00a3 9742     		.uleb128 0x2117
 2165 00a5 19       		.uleb128 0x19
 2166 00a6 00       		.byte	0
 2167 00a7 00       		.byte	0
 2168 00a8 0C       		.uleb128 0xc
 2169 00a9 2E       		.uleb128 0x2e
 2170 00aa 01       		.byte	0x1
 2171 00ab 3F       		.uleb128 0x3f
 2172 00ac 19       		.uleb128 0x19
 2173 00ad 03       		.uleb128 0x3
 2174 00ae 0E       		.uleb128 0xe
 2175 00af 3A       		.uleb128 0x3a
 2176 00b0 0B       		.uleb128 0xb
 2177 00b1 3B       		.uleb128 0x3b
 2178 00b2 05       		.uleb128 0x5
 2179 00b3 27       		.uleb128 0x27
 2180 00b4 19       		.uleb128 0x19
 2181 00b5 11       		.uleb128 0x11
 2182 00b6 01       		.uleb128 0x1
 2183 00b7 12       		.uleb128 0x12
 2184 00b8 06       		.uleb128 0x6
 2185 00b9 40       		.uleb128 0x40
 2186 00ba 18       		.uleb128 0x18
 2187 00bb 9742     		.uleb128 0x2117
 2188 00bd 19       		.uleb128 0x19
 2189 00be 01       		.uleb128 0x1
 2190 00bf 13       		.uleb128 0x13
ARM GAS  C:\Users\raymond\AppData\Local\Temp\cc1iXpfr.s 			page 60


 2191 00c0 00       		.byte	0
 2192 00c1 00       		.byte	0
 2193 00c2 0D       		.uleb128 0xd
 2194 00c3 898201   		.uleb128 0x4109
 2195 00c6 01       		.byte	0x1
 2196 00c7 11       		.uleb128 0x11
 2197 00c8 01       		.uleb128 0x1
 2198 00c9 31       		.uleb128 0x31
 2199 00ca 13       		.uleb128 0x13
 2200 00cb 01       		.uleb128 0x1
 2201 00cc 13       		.uleb128 0x13
 2202 00cd 00       		.byte	0
 2203 00ce 00       		.byte	0
 2204 00cf 0E       		.uleb128 0xe
 2205 00d0 34       		.uleb128 0x34
 2206 00d1 00       		.byte	0
 2207 00d2 03       		.uleb128 0x3
 2208 00d3 08       		.uleb128 0x8
 2209 00d4 3A       		.uleb128 0x3a
 2210 00d5 0B       		.uleb128 0xb
 2211 00d6 3B       		.uleb128 0x3b
 2212 00d7 05       		.uleb128 0x5
 2213 00d8 49       		.uleb128 0x49
 2214 00d9 13       		.uleb128 0x13
 2215 00da 02       		.uleb128 0x2
 2216 00db 17       		.uleb128 0x17
 2217 00dc 00       		.byte	0
 2218 00dd 00       		.byte	0
 2219 00de 0F       		.uleb128 0xf
 2220 00df 2E       		.uleb128 0x2e
 2221 00e0 01       		.byte	0x1
 2222 00e1 3F       		.uleb128 0x3f
 2223 00e2 19       		.uleb128 0x19
 2224 00e3 03       		.uleb128 0x3
 2225 00e4 0E       		.uleb128 0xe
 2226 00e5 3A       		.uleb128 0x3a
 2227 00e6 0B       		.uleb128 0xb
 2228 00e7 3B       		.uleb128 0x3b
 2229 00e8 0B       		.uleb128 0xb
 2230 00e9 27       		.uleb128 0x27
 2231 00ea 19       		.uleb128 0x19
 2232 00eb 49       		.uleb128 0x49
 2233 00ec 13       		.uleb128 0x13
 2234 00ed 11       		.uleb128 0x11
 2235 00ee 01       		.uleb128 0x1
 2236 00ef 12       		.uleb128 0x12
 2237 00f0 06       		.uleb128 0x6
 2238 00f1 40       		.uleb128 0x40
 2239 00f2 18       		.uleb128 0x18
 2240 00f3 9742     		.uleb128 0x2117
 2241 00f5 19       		.uleb128 0x19
 2242 00f6 01       		.uleb128 0x1
 2243 00f7 13       		.uleb128 0x13
 2244 00f8 00       		.byte	0
 2245 00f9 00       		.byte	0
 2246 00fa 10       		.uleb128 0x10
 2247 00fb 05       		.uleb128 0x5
ARM GAS  C:\Users\raymond\AppData\Local\Temp\cc1iXpfr.s 			page 61


 2248 00fc 00       		.byte	0
 2249 00fd 03       		.uleb128 0x3
 2250 00fe 0E       		.uleb128 0xe
 2251 00ff 3A       		.uleb128 0x3a
 2252 0100 0B       		.uleb128 0xb
 2253 0101 3B       		.uleb128 0x3b
 2254 0102 0B       		.uleb128 0xb
 2255 0103 49       		.uleb128 0x49
 2256 0104 13       		.uleb128 0x13
 2257 0105 02       		.uleb128 0x2
 2258 0106 17       		.uleb128 0x17
 2259 0107 00       		.byte	0
 2260 0108 00       		.byte	0
 2261 0109 11       		.uleb128 0x11
 2262 010a 05       		.uleb128 0x5
 2263 010b 00       		.byte	0
 2264 010c 03       		.uleb128 0x3
 2265 010d 08       		.uleb128 0x8
 2266 010e 3A       		.uleb128 0x3a
 2267 010f 0B       		.uleb128 0xb
 2268 0110 3B       		.uleb128 0x3b
 2269 0111 0B       		.uleb128 0xb
 2270 0112 49       		.uleb128 0x49
 2271 0113 13       		.uleb128 0x13
 2272 0114 02       		.uleb128 0x2
 2273 0115 17       		.uleb128 0x17
 2274 0116 00       		.byte	0
 2275 0117 00       		.byte	0
 2276 0118 12       		.uleb128 0x12
 2277 0119 34       		.uleb128 0x34
 2278 011a 00       		.byte	0
 2279 011b 03       		.uleb128 0x3
 2280 011c 0E       		.uleb128 0xe
 2281 011d 3A       		.uleb128 0x3a
 2282 011e 0B       		.uleb128 0xb
 2283 011f 3B       		.uleb128 0x3b
 2284 0120 0B       		.uleb128 0xb
 2285 0121 49       		.uleb128 0x49
 2286 0122 13       		.uleb128 0x13
 2287 0123 02       		.uleb128 0x2
 2288 0124 17       		.uleb128 0x17
 2289 0125 00       		.byte	0
 2290 0126 00       		.byte	0
 2291 0127 13       		.uleb128 0x13
 2292 0128 898201   		.uleb128 0x4109
 2293 012b 00       		.byte	0
 2294 012c 11       		.uleb128 0x11
 2295 012d 01       		.uleb128 0x1
 2296 012e 31       		.uleb128 0x31
 2297 012f 13       		.uleb128 0x13
 2298 0130 00       		.byte	0
 2299 0131 00       		.byte	0
 2300 0132 14       		.uleb128 0x14
 2301 0133 0F       		.uleb128 0xf
 2302 0134 00       		.byte	0
 2303 0135 0B       		.uleb128 0xb
 2304 0136 0B       		.uleb128 0xb
ARM GAS  C:\Users\raymond\AppData\Local\Temp\cc1iXpfr.s 			page 62


 2305 0137 49       		.uleb128 0x49
 2306 0138 13       		.uleb128 0x13
 2307 0139 00       		.byte	0
 2308 013a 00       		.byte	0
 2309 013b 15       		.uleb128 0x15
 2310 013c 34       		.uleb128 0x34
 2311 013d 00       		.byte	0
 2312 013e 03       		.uleb128 0x3
 2313 013f 0E       		.uleb128 0xe
 2314 0140 3A       		.uleb128 0x3a
 2315 0141 0B       		.uleb128 0xb
 2316 0142 3B       		.uleb128 0x3b
 2317 0143 0B       		.uleb128 0xb
 2318 0144 49       		.uleb128 0x49
 2319 0145 13       		.uleb128 0x13
 2320 0146 3F       		.uleb128 0x3f
 2321 0147 19       		.uleb128 0x19
 2322 0148 3C       		.uleb128 0x3c
 2323 0149 19       		.uleb128 0x19
 2324 014a 00       		.byte	0
 2325 014b 00       		.byte	0
 2326 014c 16       		.uleb128 0x16
 2327 014d 34       		.uleb128 0x34
 2328 014e 00       		.byte	0
 2329 014f 03       		.uleb128 0x3
 2330 0150 0E       		.uleb128 0xe
 2331 0151 3A       		.uleb128 0x3a
 2332 0152 0B       		.uleb128 0xb
 2333 0153 3B       		.uleb128 0x3b
 2334 0154 0B       		.uleb128 0xb
 2335 0155 49       		.uleb128 0x49
 2336 0156 13       		.uleb128 0x13
 2337 0157 3F       		.uleb128 0x3f
 2338 0158 19       		.uleb128 0x19
 2339 0159 02       		.uleb128 0x2
 2340 015a 18       		.uleb128 0x18
 2341 015b 00       		.byte	0
 2342 015c 00       		.byte	0
 2343 015d 17       		.uleb128 0x17
 2344 015e 2E       		.uleb128 0x2e
 2345 015f 01       		.byte	0x1
 2346 0160 3F       		.uleb128 0x3f
 2347 0161 19       		.uleb128 0x19
 2348 0162 03       		.uleb128 0x3
 2349 0163 0E       		.uleb128 0xe
 2350 0164 3A       		.uleb128 0x3a
 2351 0165 0B       		.uleb128 0xb
 2352 0166 3B       		.uleb128 0x3b
 2353 0167 0B       		.uleb128 0xb
 2354 0168 27       		.uleb128 0x27
 2355 0169 19       		.uleb128 0x19
 2356 016a 3C       		.uleb128 0x3c
 2357 016b 19       		.uleb128 0x19
 2358 016c 01       		.uleb128 0x1
 2359 016d 13       		.uleb128 0x13
 2360 016e 00       		.byte	0
 2361 016f 00       		.byte	0
ARM GAS  C:\Users\raymond\AppData\Local\Temp\cc1iXpfr.s 			page 63


 2362 0170 18       		.uleb128 0x18
 2363 0171 05       		.uleb128 0x5
 2364 0172 00       		.byte	0
 2365 0173 49       		.uleb128 0x49
 2366 0174 13       		.uleb128 0x13
 2367 0175 00       		.byte	0
 2368 0176 00       		.byte	0
 2369 0177 19       		.uleb128 0x19
 2370 0178 2E       		.uleb128 0x2e
 2371 0179 01       		.byte	0x1
 2372 017a 3F       		.uleb128 0x3f
 2373 017b 19       		.uleb128 0x19
 2374 017c 03       		.uleb128 0x3
 2375 017d 0E       		.uleb128 0xe
 2376 017e 3A       		.uleb128 0x3a
 2377 017f 0B       		.uleb128 0xb
 2378 0180 3B       		.uleb128 0x3b
 2379 0181 0B       		.uleb128 0xb
 2380 0182 27       		.uleb128 0x27
 2381 0183 19       		.uleb128 0x19
 2382 0184 3C       		.uleb128 0x3c
 2383 0185 19       		.uleb128 0x19
 2384 0186 00       		.byte	0
 2385 0187 00       		.byte	0
 2386 0188 00       		.byte	0
 2387              		.section	.debug_loc,"",%progbits
 2388              	.Ldebug_loc0:
 2389              	.LLST0:
 2390 0000 00000000 		.4byte	.LVL0
 2391 0004 18000000 		.4byte	.LVL2
 2392 0008 0100     		.2byte	0x1
 2393 000a 50       		.byte	0x50
 2394 000b 18000000 		.4byte	.LVL2
 2395 000f 22000000 		.4byte	.LVL4
 2396 0013 0100     		.2byte	0x1
 2397 0015 54       		.byte	0x54
 2398 0016 22000000 		.4byte	.LVL4
 2399 001a 74000000 		.4byte	.LVL7
 2400 001e 0100     		.2byte	0x1
 2401 0020 50       		.byte	0x50
 2402 0021 78000000 		.4byte	.LVL8
 2403 0025 80000000 		.4byte	.LVL10
 2404 0029 0100     		.2byte	0x1
 2405 002b 50       		.byte	0x50
 2406 002c 86000000 		.4byte	.LVL11
 2407 0030 88000000 		.4byte	.LVL12
 2408 0034 0100     		.2byte	0x1
 2409 0036 50       		.byte	0x50
 2410 0037 8C000000 		.4byte	.LVL13
 2411 003b 8E000000 		.4byte	.LVL14
 2412 003f 0100     		.2byte	0x1
 2413 0041 50       		.byte	0x50
 2414 0042 B2000000 		.4byte	.LVL17
 2415 0046 B4000000 		.4byte	.LVL18
 2416 004a 0100     		.2byte	0x1
 2417 004c 50       		.byte	0x50
 2418 004d B4000000 		.4byte	.LVL18
ARM GAS  C:\Users\raymond\AppData\Local\Temp\cc1iXpfr.s 			page 64


 2419 0051 B6000000 		.4byte	.LVL19
 2420 0055 0400     		.2byte	0x4
 2421 0057 F3       		.byte	0xf3
 2422 0058 01       		.uleb128 0x1
 2423 0059 50       		.byte	0x50
 2424 005a 9F       		.byte	0x9f
 2425 005b B6000000 		.4byte	.LVL19
 2426 005f B8000000 		.4byte	.LVL20
 2427 0063 0100     		.2byte	0x1
 2428 0065 50       		.byte	0x50
 2429 0066 00000000 		.4byte	0
 2430 006a 00000000 		.4byte	0
 2431              	.LLST1:
 2432 006e 00000000 		.4byte	.LVL0
 2433 0072 1B000000 		.4byte	.LVL3-1
 2434 0076 0100     		.2byte	0x1
 2435 0078 51       		.byte	0x51
 2436 0079 1B000000 		.4byte	.LVL3-1
 2437 007d B2000000 		.4byte	.LVL17
 2438 0081 0100     		.2byte	0x1
 2439 0083 55       		.byte	0x55
 2440 0084 B2000000 		.4byte	.LVL17
 2441 0088 B8000000 		.4byte	.LVL20
 2442 008c 0100     		.2byte	0x1
 2443 008e 51       		.byte	0x51
 2444 008f B8000000 		.4byte	.LVL20
 2445 0093 D8000000 		.4byte	.LFE3
 2446 0097 0400     		.2byte	0x4
 2447 0099 F3       		.byte	0xf3
 2448 009a 01       		.uleb128 0x1
 2449 009b 51       		.byte	0x51
 2450 009c 9F       		.byte	0x9f
 2451 009d 00000000 		.4byte	0
 2452 00a1 00000000 		.4byte	0
 2453              	.LLST2:
 2454 00a5 02000000 		.4byte	.LVL1
 2455 00a9 72000000 		.4byte	.LVL6
 2456 00ad 0200     		.2byte	0x2
 2457 00af 30       		.byte	0x30
 2458 00b0 9F       		.byte	0x9f
 2459 00b1 72000000 		.4byte	.LVL6
 2460 00b5 78000000 		.4byte	.LVL8
 2461 00b9 0200     		.2byte	0x2
 2462 00bb 31       		.byte	0x31
 2463 00bc 9F       		.byte	0x9f
 2464 00bd 78000000 		.4byte	.LVL8
 2465 00c1 7E000000 		.4byte	.LVL9
 2466 00c5 0200     		.2byte	0x2
 2467 00c7 30       		.byte	0x30
 2468 00c8 9F       		.byte	0x9f
 2469 00c9 7E000000 		.4byte	.LVL9
 2470 00cd 86000000 		.4byte	.LVL11
 2471 00d1 0200     		.2byte	0x2
 2472 00d3 31       		.byte	0x31
 2473 00d4 9F       		.byte	0x9f
 2474 00d5 86000000 		.4byte	.LVL11
 2475 00d9 90000000 		.4byte	.LVL15
ARM GAS  C:\Users\raymond\AppData\Local\Temp\cc1iXpfr.s 			page 65


 2476 00dd 0200     		.2byte	0x2
 2477 00df 30       		.byte	0x30
 2478 00e0 9F       		.byte	0x9f
 2479 00e1 90000000 		.4byte	.LVL15
 2480 00e5 AA000000 		.4byte	.LVL16
 2481 00e9 0100     		.2byte	0x1
 2482 00eb 51       		.byte	0x51
 2483 00ec B2000000 		.4byte	.LVL17
 2484 00f0 B8000000 		.4byte	.LVL20
 2485 00f4 0200     		.2byte	0x2
 2486 00f6 30       		.byte	0x30
 2487 00f7 9F       		.byte	0x9f
 2488 00f8 00000000 		.4byte	0
 2489 00fc 00000000 		.4byte	0
 2490              	.LLST3:
 2491 0100 02000000 		.4byte	.LVL1
 2492 0104 72000000 		.4byte	.LVL6
 2493 0108 0200     		.2byte	0x2
 2494 010a 34       		.byte	0x34
 2495 010b 9F       		.byte	0x9f
 2496 010c 72000000 		.4byte	.LVL6
 2497 0110 78000000 		.4byte	.LVL8
 2498 0114 0200     		.2byte	0x2
 2499 0116 31       		.byte	0x31
 2500 0117 9F       		.byte	0x9f
 2501 0118 78000000 		.4byte	.LVL8
 2502 011c 7E000000 		.4byte	.LVL9
 2503 0120 0200     		.2byte	0x2
 2504 0122 34       		.byte	0x34
 2505 0123 9F       		.byte	0x9f
 2506 0124 7E000000 		.4byte	.LVL9
 2507 0128 86000000 		.4byte	.LVL11
 2508 012c 0400     		.2byte	0x4
 2509 012e 0A       		.byte	0xa
 2510 012f 0001     		.2byte	0x100
 2511 0131 9F       		.byte	0x9f
 2512 0132 86000000 		.4byte	.LVL11
 2513 0136 90000000 		.4byte	.LVL15
 2514 013a 0200     		.2byte	0x2
 2515 013c 34       		.byte	0x34
 2516 013d 9F       		.byte	0x9f
 2517 013e 90000000 		.4byte	.LVL15
 2518 0142 B2000000 		.4byte	.LVL17
 2519 0146 0100     		.2byte	0x1
 2520 0148 50       		.byte	0x50
 2521 0149 B2000000 		.4byte	.LVL17
 2522 014d B8000000 		.4byte	.LVL20
 2523 0151 0200     		.2byte	0x2
 2524 0153 34       		.byte	0x34
 2525 0154 9F       		.byte	0x9f
 2526 0155 B8000000 		.4byte	.LVL20
 2527 0159 D8000000 		.4byte	.LFE3
 2528 015d 0100     		.2byte	0x1
 2529 015f 50       		.byte	0x50
 2530 0160 00000000 		.4byte	0
 2531 0164 00000000 		.4byte	0
 2532              	.LLST4:
ARM GAS  C:\Users\raymond\AppData\Local\Temp\cc1iXpfr.s 			page 66


 2533 0168 00000000 		.4byte	.LVL21
 2534 016c 48000000 		.4byte	.LVL22
 2535 0170 0200     		.2byte	0x2
 2536 0172 30       		.byte	0x30
 2537 0173 9F       		.byte	0x9f
 2538 0174 48000000 		.4byte	.LVL22
 2539 0178 6A000000 		.4byte	.LVL23
 2540 017c 0100     		.2byte	0x1
 2541 017e 51       		.byte	0x51
 2542 017f 72000000 		.4byte	.LVL24
 2543 0183 74000000 		.4byte	.LVL25
 2544 0187 0200     		.2byte	0x2
 2545 0189 30       		.byte	0x30
 2546 018a 9F       		.byte	0x9f
 2547 018b 00000000 		.4byte	0
 2548 018f 00000000 		.4byte	0
 2549              	.LLST5:
 2550 0193 00000000 		.4byte	.LVL21
 2551 0197 48000000 		.4byte	.LVL22
 2552 019b 0200     		.2byte	0x2
 2553 019d 34       		.byte	0x34
 2554 019e 9F       		.byte	0x9f
 2555 019f 48000000 		.4byte	.LVL22
 2556 01a3 72000000 		.4byte	.LVL24
 2557 01a7 0100     		.2byte	0x1
 2558 01a9 50       		.byte	0x50
 2559 01aa 72000000 		.4byte	.LVL24
 2560 01ae 74000000 		.4byte	.LVL25
 2561 01b2 0200     		.2byte	0x2
 2562 01b4 34       		.byte	0x34
 2563 01b5 9F       		.byte	0x9f
 2564 01b6 74000000 		.4byte	.LVL25
 2565 01ba 8C000000 		.4byte	.LFE5
 2566 01be 0100     		.2byte	0x1
 2567 01c0 50       		.byte	0x50
 2568 01c1 00000000 		.4byte	0
 2569 01c5 00000000 		.4byte	0
 2570              	.LLST6:
 2571 01c9 00000000 		.4byte	.LVL26
 2572 01cd 28000000 		.4byte	.LVL28
 2573 01d1 0100     		.2byte	0x1
 2574 01d3 50       		.byte	0x50
 2575 01d4 28000000 		.4byte	.LVL28
 2576 01d8 2C000000 		.4byte	.LVL29
 2577 01dc 0400     		.2byte	0x4
 2578 01de F3       		.byte	0xf3
 2579 01df 01       		.uleb128 0x1
 2580 01e0 50       		.byte	0x50
 2581 01e1 9F       		.byte	0x9f
 2582 01e2 2C000000 		.4byte	.LVL29
 2583 01e6 3C000000 		.4byte	.LVL31
 2584 01ea 0100     		.2byte	0x1
 2585 01ec 50       		.byte	0x50
 2586 01ed 3C000000 		.4byte	.LVL31
 2587 01f1 40000000 		.4byte	.LVL32
 2588 01f5 0400     		.2byte	0x4
 2589 01f7 F3       		.byte	0xf3
ARM GAS  C:\Users\raymond\AppData\Local\Temp\cc1iXpfr.s 			page 67


 2590 01f8 01       		.uleb128 0x1
 2591 01f9 50       		.byte	0x50
 2592 01fa 9F       		.byte	0x9f
 2593 01fb 40000000 		.4byte	.LVL32
 2594 01ff 50000000 		.4byte	.LVL34
 2595 0203 0100     		.2byte	0x1
 2596 0205 50       		.byte	0x50
 2597 0206 50000000 		.4byte	.LVL34
 2598 020a 54000000 		.4byte	.LVL35
 2599 020e 0400     		.2byte	0x4
 2600 0210 F3       		.byte	0xf3
 2601 0211 01       		.uleb128 0x1
 2602 0212 50       		.byte	0x50
 2603 0213 9F       		.byte	0x9f
 2604 0214 54000000 		.4byte	.LVL35
 2605 0218 5C000000 		.4byte	.LVL37
 2606 021c 0100     		.2byte	0x1
 2607 021e 50       		.byte	0x50
 2608 021f 5C000000 		.4byte	.LVL37
 2609 0223 82000000 		.4byte	.LVL40
 2610 0227 0400     		.2byte	0x4
 2611 0229 F3       		.byte	0xf3
 2612 022a 01       		.uleb128 0x1
 2613 022b 50       		.byte	0x50
 2614 022c 9F       		.byte	0x9f
 2615 022d 82000000 		.4byte	.LVL40
 2616 0231 84000000 		.4byte	.LVL41
 2617 0235 0100     		.2byte	0x1
 2618 0237 50       		.byte	0x50
 2619 0238 84000000 		.4byte	.LVL41
 2620 023c 98000000 		.4byte	.LFE6
 2621 0240 0400     		.2byte	0x4
 2622 0242 F3       		.byte	0xf3
 2623 0243 01       		.uleb128 0x1
 2624 0244 50       		.byte	0x50
 2625 0245 9F       		.byte	0x9f
 2626 0246 00000000 		.4byte	0
 2627 024a 00000000 		.4byte	0
 2628              	.LLST7:
 2629 024e 00000000 		.4byte	.LVL26
 2630 0252 4E000000 		.4byte	.LVL33
 2631 0256 0200     		.2byte	0x2
 2632 0258 30       		.byte	0x30
 2633 0259 9F       		.byte	0x9f
 2634 025a 4E000000 		.4byte	.LVL33
 2635 025e 54000000 		.4byte	.LVL35
 2636 0262 0200     		.2byte	0x2
 2637 0264 31       		.byte	0x31
 2638 0265 9F       		.byte	0x9f
 2639 0266 54000000 		.4byte	.LVL35
 2640 026a 5A000000 		.4byte	.LVL36
 2641 026e 0200     		.2byte	0x2
 2642 0270 30       		.byte	0x30
 2643 0271 9F       		.byte	0x9f
 2644 0272 5A000000 		.4byte	.LVL36
 2645 0276 60000000 		.4byte	.LVL38
 2646 027a 0200     		.2byte	0x2
ARM GAS  C:\Users\raymond\AppData\Local\Temp\cc1iXpfr.s 			page 68


 2647 027c 31       		.byte	0x31
 2648 027d 9F       		.byte	0x9f
 2649 027e 60000000 		.4byte	.LVL38
 2650 0282 7A000000 		.4byte	.LVL39
 2651 0286 0100     		.2byte	0x1
 2652 0288 51       		.byte	0x51
 2653 0289 82000000 		.4byte	.LVL40
 2654 028d 84000000 		.4byte	.LVL41
 2655 0291 0200     		.2byte	0x2
 2656 0293 30       		.byte	0x30
 2657 0294 9F       		.byte	0x9f
 2658 0295 00000000 		.4byte	0
 2659 0299 00000000 		.4byte	0
 2660              	.LLST8:
 2661 029d 00000000 		.4byte	.LVL26
 2662 02a1 26000000 		.4byte	.LVL27
 2663 02a5 0200     		.2byte	0x2
 2664 02a7 34       		.byte	0x34
 2665 02a8 9F       		.byte	0x9f
 2666 02a9 26000000 		.4byte	.LVL27
 2667 02ad 2C000000 		.4byte	.LVL29
 2668 02b1 0200     		.2byte	0x2
 2669 02b3 30       		.byte	0x30
 2670 02b4 9F       		.byte	0x9f
 2671 02b5 2C000000 		.4byte	.LVL29
 2672 02b9 3A000000 		.4byte	.LVL30
 2673 02bd 0200     		.2byte	0x2
 2674 02bf 34       		.byte	0x34
 2675 02c0 9F       		.byte	0x9f
 2676 02c1 3A000000 		.4byte	.LVL30
 2677 02c5 40000000 		.4byte	.LVL32
 2678 02c9 0200     		.2byte	0x2
 2679 02cb 32       		.byte	0x32
 2680 02cc 9F       		.byte	0x9f
 2681 02cd 40000000 		.4byte	.LVL32
 2682 02d1 4E000000 		.4byte	.LVL33
 2683 02d5 0200     		.2byte	0x2
 2684 02d7 34       		.byte	0x34
 2685 02d8 9F       		.byte	0x9f
 2686 02d9 4E000000 		.4byte	.LVL33
 2687 02dd 54000000 		.4byte	.LVL35
 2688 02e1 0200     		.2byte	0x2
 2689 02e3 31       		.byte	0x31
 2690 02e4 9F       		.byte	0x9f
 2691 02e5 54000000 		.4byte	.LVL35
 2692 02e9 5A000000 		.4byte	.LVL36
 2693 02ed 0200     		.2byte	0x2
 2694 02ef 34       		.byte	0x34
 2695 02f0 9F       		.byte	0x9f
 2696 02f1 5A000000 		.4byte	.LVL36
 2697 02f5 60000000 		.4byte	.LVL38
 2698 02f9 0400     		.2byte	0x4
 2699 02fb 0A       		.byte	0xa
 2700 02fc 0001     		.2byte	0x100
 2701 02fe 9F       		.byte	0x9f
 2702 02ff 60000000 		.4byte	.LVL38
 2703 0303 82000000 		.4byte	.LVL40
ARM GAS  C:\Users\raymond\AppData\Local\Temp\cc1iXpfr.s 			page 69


 2704 0307 0100     		.2byte	0x1
 2705 0309 50       		.byte	0x50
 2706 030a 82000000 		.4byte	.LVL40
 2707 030e 84000000 		.4byte	.LVL41
 2708 0312 0200     		.2byte	0x2
 2709 0314 34       		.byte	0x34
 2710 0315 9F       		.byte	0x9f
 2711 0316 84000000 		.4byte	.LVL41
 2712 031a 98000000 		.4byte	.LFE6
 2713 031e 0100     		.2byte	0x1
 2714 0320 50       		.byte	0x50
 2715 0321 00000000 		.4byte	0
 2716 0325 00000000 		.4byte	0
 2717              	.LLST9:
 2718 0329 00000000 		.4byte	.LVL42
 2719 032d 2A000000 		.4byte	.LVL44
 2720 0331 0100     		.2byte	0x1
 2721 0333 50       		.byte	0x50
 2722 0334 2A000000 		.4byte	.LVL44
 2723 0338 42000000 		.4byte	.LVL45
 2724 033c 0100     		.2byte	0x1
 2725 033e 51       		.byte	0x51
 2726 033f 42000000 		.4byte	.LVL45
 2727 0343 5E000000 		.4byte	.LVL46
 2728 0347 0100     		.2byte	0x1
 2729 0349 50       		.byte	0x50
 2730 034a 5E000000 		.4byte	.LVL46
 2731 034e 62000000 		.4byte	.LVL47
 2732 0352 0400     		.2byte	0x4
 2733 0354 F3       		.byte	0xf3
 2734 0355 01       		.uleb128 0x1
 2735 0356 50       		.byte	0x50
 2736 0357 9F       		.byte	0x9f
 2737 0358 62000000 		.4byte	.LVL47
 2738 035c 64000000 		.4byte	.LVL48
 2739 0360 0100     		.2byte	0x1
 2740 0362 50       		.byte	0x50
 2741 0363 64000000 		.4byte	.LVL48
 2742 0367 66000000 		.4byte	.LVL49
 2743 036b 0100     		.2byte	0x1
 2744 036d 51       		.byte	0x51
 2745 036e 66000000 		.4byte	.LVL49
 2746 0372 84000000 		.4byte	.LFE7
 2747 0376 0400     		.2byte	0x4
 2748 0378 F3       		.byte	0xf3
 2749 0379 01       		.uleb128 0x1
 2750 037a 50       		.byte	0x50
 2751 037b 9F       		.byte	0x9f
 2752 037c 00000000 		.4byte	0
 2753 0380 00000000 		.4byte	0
 2754              	.LLST10:
 2755 0384 02000000 		.4byte	.LVL43
 2756 0388 2A000000 		.4byte	.LVL44
 2757 038c 0300     		.2byte	0x3
 2758 038e 09       		.byte	0x9
 2759 038f FF       		.byte	0xff
 2760 0390 9F       		.byte	0x9f
ARM GAS  C:\Users\raymond\AppData\Local\Temp\cc1iXpfr.s 			page 70


 2761 0391 2A000000 		.4byte	.LVL44
 2762 0395 42000000 		.4byte	.LVL45
 2763 0399 0100     		.2byte	0x1
 2764 039b 50       		.byte	0x50
 2765 039c 42000000 		.4byte	.LVL45
 2766 03a0 66000000 		.4byte	.LVL49
 2767 03a4 0300     		.2byte	0x3
 2768 03a6 09       		.byte	0x9
 2769 03a7 FF       		.byte	0xff
 2770 03a8 9F       		.byte	0x9f
 2771 03a9 66000000 		.4byte	.LVL49
 2772 03ad 84000000 		.4byte	.LFE7
 2773 03b1 0100     		.2byte	0x1
 2774 03b3 50       		.byte	0x50
 2775 03b4 00000000 		.4byte	0
 2776 03b8 00000000 		.4byte	0
 2777              	.LLST11:
 2778 03bc 10000000 		.4byte	.LVL55
 2779 03c0 1C000000 		.4byte	.LVL56
 2780 03c4 0100     		.2byte	0x1
 2781 03c6 53       		.byte	0x53
 2782 03c7 1C000000 		.4byte	.LVL56
 2783 03cb 24000000 		.4byte	.LVL58
 2784 03cf 0100     		.2byte	0x1
 2785 03d1 54       		.byte	0x54
 2786 03d2 24000000 		.4byte	.LVL58
 2787 03d6 30000000 		.4byte	.LFE12
 2788 03da 0100     		.2byte	0x1
 2789 03dc 50       		.byte	0x50
 2790 03dd 00000000 		.4byte	0
 2791 03e1 00000000 		.4byte	0
 2792              	.LLST12:
 2793 03e5 0E000000 		.4byte	.LVL60
 2794 03e9 1A000000 		.4byte	.LVL62
 2795 03ed 0100     		.2byte	0x1
 2796 03ef 54       		.byte	0x54
 2797 03f0 1A000000 		.4byte	.LVL62
 2798 03f4 20000000 		.4byte	.LFE13
 2799 03f8 0100     		.2byte	0x1
 2800 03fa 50       		.byte	0x50
 2801 03fb 00000000 		.4byte	0
 2802 03ff 00000000 		.4byte	0
 2803              	.LLST13:
 2804 0403 00000000 		.4byte	.LVL63
 2805 0407 10000000 		.4byte	.LVL64
 2806 040b 0200     		.2byte	0x2
 2807 040d 31       		.byte	0x31
 2808 040e 9F       		.byte	0x9f
 2809 040f 10000000 		.4byte	.LVL64
 2810 0413 20000000 		.4byte	.LFE14
 2811 0417 0100     		.2byte	0x1
 2812 0419 53       		.byte	0x53
 2813 041a 00000000 		.4byte	0
 2814 041e 00000000 		.4byte	0
 2815              	.LLST14:
 2816 0422 00000000 		.4byte	.LVL65
 2817 0426 1A000000 		.4byte	.LVL68
ARM GAS  C:\Users\raymond\AppData\Local\Temp\cc1iXpfr.s 			page 71


 2818 042a 0100     		.2byte	0x1
 2819 042c 50       		.byte	0x50
 2820 042d 1A000000 		.4byte	.LVL68
 2821 0431 2E000000 		.4byte	.LVL71
 2822 0435 0200     		.2byte	0x2
 2823 0437 91       		.byte	0x91
 2824 0438 64       		.sleb128 -28
 2825 0439 2E000000 		.4byte	.LVL71
 2826 043d 4A000000 		.4byte	.LVL77
 2827 0441 0100     		.2byte	0x1
 2828 0443 50       		.byte	0x50
 2829 0444 4A000000 		.4byte	.LVL77
 2830 0448 74000000 		.4byte	.LVL79
 2831 044c 0200     		.2byte	0x2
 2832 044e 91       		.byte	0x91
 2833 044f 64       		.sleb128 -28
 2834 0450 74000000 		.4byte	.LVL79
 2835 0454 A6000000 		.4byte	.LVL82
 2836 0458 0100     		.2byte	0x1
 2837 045a 54       		.byte	0x54
 2838 045b 00000000 		.4byte	0
 2839 045f 00000000 		.4byte	0
 2840              	.LLST15:
 2841 0463 00000000 		.4byte	.LVL65
 2842 0467 1D000000 		.4byte	.LVL69-1
 2843 046b 0100     		.2byte	0x1
 2844 046d 51       		.byte	0x51
 2845 046e 1D000000 		.4byte	.LVL69-1
 2846 0472 2E000000 		.4byte	.LVL71
 2847 0476 0100     		.2byte	0x1
 2848 0478 54       		.byte	0x54
 2849 0479 2E000000 		.4byte	.LVL71
 2850 047d 3C000000 		.4byte	.LVL73
 2851 0481 0100     		.2byte	0x1
 2852 0483 51       		.byte	0x51
 2853 0484 3C000000 		.4byte	.LVL73
 2854 0488 44000000 		.4byte	.LVL75
 2855 048c 0100     		.2byte	0x1
 2856 048e 54       		.byte	0x54
 2857 048f 44000000 		.4byte	.LVL75
 2858 0493 4A000000 		.4byte	.LVL77
 2859 0497 0100     		.2byte	0x1
 2860 0499 51       		.byte	0x51
 2861 049a 4A000000 		.4byte	.LVL77
 2862 049e 70000000 		.4byte	.LVL78
 2863 04a2 0100     		.2byte	0x1
 2864 04a4 54       		.byte	0x54
 2865 04a5 70000000 		.4byte	.LVL78
 2866 04a9 84000000 		.4byte	.LVL80
 2867 04ad 0500     		.2byte	0x5
 2868 04af 03       		.byte	0x3
 2869 04b0 00000000 		.4byte	I2C_1_mstrWrBufPtr
 2870 04b4 84000000 		.4byte	.LVL80
 2871 04b8 EC000000 		.4byte	.LFE1
 2872 04bc 0400     		.2byte	0x4
 2873 04be F3       		.byte	0xf3
 2874 04bf 01       		.uleb128 0x1
ARM GAS  C:\Users\raymond\AppData\Local\Temp\cc1iXpfr.s 			page 72


 2875 04c0 51       		.byte	0x51
 2876 04c1 9F       		.byte	0x9f
 2877 04c2 00000000 		.4byte	0
 2878 04c6 00000000 		.4byte	0
 2879              	.LLST16:
 2880 04ca 00000000 		.4byte	.LVL65
 2881 04ce 1D000000 		.4byte	.LVL69-1
 2882 04d2 0100     		.2byte	0x1
 2883 04d4 52       		.byte	0x52
 2884 04d5 1D000000 		.4byte	.LVL69-1
 2885 04d9 2E000000 		.4byte	.LVL71
 2886 04dd 0100     		.2byte	0x1
 2887 04df 57       		.byte	0x57
 2888 04e0 2E000000 		.4byte	.LVL71
 2889 04e4 38000000 		.4byte	.LVL72
 2890 04e8 0100     		.2byte	0x1
 2891 04ea 52       		.byte	0x52
 2892 04eb 38000000 		.4byte	.LVL72
 2893 04ef 44000000 		.4byte	.LVL75
 2894 04f3 0100     		.2byte	0x1
 2895 04f5 57       		.byte	0x57
 2896 04f6 44000000 		.4byte	.LVL75
 2897 04fa 4A000000 		.4byte	.LVL77
 2898 04fe 0100     		.2byte	0x1
 2899 0500 52       		.byte	0x52
 2900 0501 4A000000 		.4byte	.LVL77
 2901 0505 B0000000 		.4byte	.LVL86
 2902 0509 0100     		.2byte	0x1
 2903 050b 57       		.byte	0x57
 2904 050c B0000000 		.4byte	.LVL86
 2905 0510 EC000000 		.4byte	.LFE1
 2906 0514 0400     		.2byte	0x4
 2907 0516 F3       		.byte	0xf3
 2908 0517 01       		.uleb128 0x1
 2909 0518 52       		.byte	0x52
 2910 0519 9F       		.byte	0x9f
 2911 051a 00000000 		.4byte	0
 2912 051e 00000000 		.4byte	0
 2913              	.LLST17:
 2914 0522 00000000 		.4byte	.LVL65
 2915 0526 12000000 		.4byte	.LVL67
 2916 052a 0100     		.2byte	0x1
 2917 052c 53       		.byte	0x53
 2918 052d 12000000 		.4byte	.LVL67
 2919 0531 44000000 		.4byte	.LVL75
 2920 0535 0100     		.2byte	0x1
 2921 0537 55       		.byte	0x55
 2922 0538 44000000 		.4byte	.LVL75
 2923 053c 48000000 		.4byte	.LVL76
 2924 0540 0100     		.2byte	0x1
 2925 0542 53       		.byte	0x53
 2926 0543 48000000 		.4byte	.LVL76
 2927 0547 B0000000 		.4byte	.LVL84
 2928 054b 0100     		.2byte	0x1
 2929 054d 55       		.byte	0x55
 2930 054e B0000000 		.4byte	.LVL84
 2931 0552 EC000000 		.4byte	.LFE1
ARM GAS  C:\Users\raymond\AppData\Local\Temp\cc1iXpfr.s 			page 73


 2932 0556 0400     		.2byte	0x4
 2933 0558 F3       		.byte	0xf3
 2934 0559 01       		.uleb128 0x1
 2935 055a 53       		.byte	0x53
 2936 055b 9F       		.byte	0x9f
 2937 055c 00000000 		.4byte	0
 2938 0560 00000000 		.4byte	0
 2939              	.LLST18:
 2940 0564 0C000000 		.4byte	.LVL66
 2941 0568 2C000000 		.4byte	.LVL70
 2942 056c 0200     		.2byte	0x2
 2943 056e 34       		.byte	0x34
 2944 056f 9F       		.byte	0x9f
 2945 0570 2C000000 		.4byte	.LVL70
 2946 0574 2E000000 		.4byte	.LVL71
 2947 0578 0200     		.2byte	0x2
 2948 057a 30       		.byte	0x30
 2949 057b 9F       		.byte	0x9f
 2950 057c 2E000000 		.4byte	.LVL71
 2951 0580 40000000 		.4byte	.LVL74
 2952 0584 0200     		.2byte	0x2
 2953 0586 34       		.byte	0x34
 2954 0587 9F       		.byte	0x9f
 2955 0588 40000000 		.4byte	.LVL74
 2956 058c 44000000 		.4byte	.LVL75
 2957 0590 0200     		.2byte	0x2
 2958 0592 30       		.byte	0x30
 2959 0593 9F       		.byte	0x9f
 2960 0594 44000000 		.4byte	.LVL75
 2961 0598 4A000000 		.4byte	.LVL77
 2962 059c 0200     		.2byte	0x2
 2963 059e 34       		.byte	0x34
 2964 059f 9F       		.byte	0x9f
 2965 05a0 4A000000 		.4byte	.LVL77
 2966 05a4 B0000000 		.4byte	.LVL85
 2967 05a8 0100     		.2byte	0x1
 2968 05aa 56       		.byte	0x56
 2969 05ab B0000000 		.4byte	.LVL85
 2970 05af EC000000 		.4byte	.LFE1
 2971 05b3 0100     		.2byte	0x1
 2972 05b5 50       		.byte	0x50
 2973 05b6 00000000 		.4byte	0
 2974 05ba 00000000 		.4byte	0
 2975              	.LLST19:
 2976 05be 00000000 		.4byte	.LVL87
 2977 05c2 1A000000 		.4byte	.LVL90
 2978 05c6 0100     		.2byte	0x1
 2979 05c8 50       		.byte	0x50
 2980 05c9 1A000000 		.4byte	.LVL90
 2981 05cd 2E000000 		.4byte	.LVL93
 2982 05d1 0200     		.2byte	0x2
 2983 05d3 91       		.byte	0x91
 2984 05d4 64       		.sleb128 -28
 2985 05d5 2E000000 		.4byte	.LVL93
 2986 05d9 4A000000 		.4byte	.LVL99
 2987 05dd 0100     		.2byte	0x1
 2988 05df 50       		.byte	0x50
ARM GAS  C:\Users\raymond\AppData\Local\Temp\cc1iXpfr.s 			page 74


 2989 05e0 4A000000 		.4byte	.LVL99
 2990 05e4 74000000 		.4byte	.LVL101
 2991 05e8 0200     		.2byte	0x2
 2992 05ea 91       		.byte	0x91
 2993 05eb 64       		.sleb128 -28
 2994 05ec 74000000 		.4byte	.LVL101
 2995 05f0 BA000000 		.4byte	.LVL104
 2996 05f4 0100     		.2byte	0x1
 2997 05f6 54       		.byte	0x54
 2998 05f7 00000000 		.4byte	0
 2999 05fb 00000000 		.4byte	0
 3000              	.LLST20:
 3001 05ff 00000000 		.4byte	.LVL87
 3002 0603 1D000000 		.4byte	.LVL91-1
 3003 0607 0100     		.2byte	0x1
 3004 0609 51       		.byte	0x51
 3005 060a 1D000000 		.4byte	.LVL91-1
 3006 060e 2E000000 		.4byte	.LVL93
 3007 0612 0100     		.2byte	0x1
 3008 0614 54       		.byte	0x54
 3009 0615 2E000000 		.4byte	.LVL93
 3010 0619 3C000000 		.4byte	.LVL95
 3011 061d 0100     		.2byte	0x1
 3012 061f 51       		.byte	0x51
 3013 0620 3C000000 		.4byte	.LVL95
 3014 0624 44000000 		.4byte	.LVL97
 3015 0628 0100     		.2byte	0x1
 3016 062a 54       		.byte	0x54
 3017 062b 44000000 		.4byte	.LVL97
 3018 062f 4A000000 		.4byte	.LVL99
 3019 0633 0100     		.2byte	0x1
 3020 0635 51       		.byte	0x51
 3021 0636 4A000000 		.4byte	.LVL99
 3022 063a 6C000000 		.4byte	.LVL100
 3023 063e 0100     		.2byte	0x1
 3024 0640 54       		.byte	0x54
 3025 0641 6C000000 		.4byte	.LVL100
 3026 0645 82000000 		.4byte	.LVL102
 3027 0649 0500     		.2byte	0x5
 3028 064b 03       		.byte	0x3
 3029 064c 00000000 		.4byte	I2C_1_mstrRdBufPtr
 3030 0650 82000000 		.4byte	.LVL102
 3031 0654 FC000000 		.4byte	.LFE2
 3032 0658 0400     		.2byte	0x4
 3033 065a F3       		.byte	0xf3
 3034 065b 01       		.uleb128 0x1
 3035 065c 51       		.byte	0x51
 3036 065d 9F       		.byte	0x9f
 3037 065e 00000000 		.4byte	0
 3038 0662 00000000 		.4byte	0
 3039              	.LLST21:
 3040 0666 00000000 		.4byte	.LVL87
 3041 066a 1D000000 		.4byte	.LVL91-1
 3042 066e 0100     		.2byte	0x1
 3043 0670 52       		.byte	0x52
 3044 0671 1D000000 		.4byte	.LVL91-1
 3045 0675 2E000000 		.4byte	.LVL93
ARM GAS  C:\Users\raymond\AppData\Local\Temp\cc1iXpfr.s 			page 75


 3046 0679 0100     		.2byte	0x1
 3047 067b 57       		.byte	0x57
 3048 067c 2E000000 		.4byte	.LVL93
 3049 0680 38000000 		.4byte	.LVL94
 3050 0684 0100     		.2byte	0x1
 3051 0686 52       		.byte	0x52
 3052 0687 38000000 		.4byte	.LVL94
 3053 068b 44000000 		.4byte	.LVL97
 3054 068f 0100     		.2byte	0x1
 3055 0691 57       		.byte	0x57
 3056 0692 44000000 		.4byte	.LVL97
 3057 0696 4A000000 		.4byte	.LVL99
 3058 069a 0100     		.2byte	0x1
 3059 069c 52       		.byte	0x52
 3060 069d 4A000000 		.4byte	.LVL99
 3061 06a1 C4000000 		.4byte	.LVL108
 3062 06a5 0100     		.2byte	0x1
 3063 06a7 57       		.byte	0x57
 3064 06a8 C4000000 		.4byte	.LVL108
 3065 06ac FC000000 		.4byte	.LFE2
 3066 06b0 0400     		.2byte	0x4
 3067 06b2 F3       		.byte	0xf3
 3068 06b3 01       		.uleb128 0x1
 3069 06b4 52       		.byte	0x52
 3070 06b5 9F       		.byte	0x9f
 3071 06b6 00000000 		.4byte	0
 3072 06ba 00000000 		.4byte	0
 3073              	.LLST22:
 3074 06be 00000000 		.4byte	.LVL87
 3075 06c2 12000000 		.4byte	.LVL89
 3076 06c6 0100     		.2byte	0x1
 3077 06c8 53       		.byte	0x53
 3078 06c9 12000000 		.4byte	.LVL89
 3079 06cd 44000000 		.4byte	.LVL97
 3080 06d1 0100     		.2byte	0x1
 3081 06d3 55       		.byte	0x55
 3082 06d4 44000000 		.4byte	.LVL97
 3083 06d8 48000000 		.4byte	.LVL98
 3084 06dc 0100     		.2byte	0x1
 3085 06de 53       		.byte	0x53
 3086 06df 48000000 		.4byte	.LVL98
 3087 06e3 C4000000 		.4byte	.LVL106
 3088 06e7 0100     		.2byte	0x1
 3089 06e9 55       		.byte	0x55
 3090 06ea C4000000 		.4byte	.LVL106
 3091 06ee FC000000 		.4byte	.LFE2
 3092 06f2 0400     		.2byte	0x4
 3093 06f4 F3       		.byte	0xf3
 3094 06f5 01       		.uleb128 0x1
 3095 06f6 53       		.byte	0x53
 3096 06f7 9F       		.byte	0x9f
 3097 06f8 00000000 		.4byte	0
 3098 06fc 00000000 		.4byte	0
 3099              	.LLST23:
 3100 0700 0C000000 		.4byte	.LVL88
 3101 0704 2C000000 		.4byte	.LVL92
 3102 0708 0200     		.2byte	0x2
ARM GAS  C:\Users\raymond\AppData\Local\Temp\cc1iXpfr.s 			page 76


 3103 070a 34       		.byte	0x34
 3104 070b 9F       		.byte	0x9f
 3105 070c 2C000000 		.4byte	.LVL92
 3106 0710 2E000000 		.4byte	.LVL93
 3107 0714 0200     		.2byte	0x2
 3108 0716 30       		.byte	0x30
 3109 0717 9F       		.byte	0x9f
 3110 0718 2E000000 		.4byte	.LVL93
 3111 071c 40000000 		.4byte	.LVL96
 3112 0720 0200     		.2byte	0x2
 3113 0722 34       		.byte	0x34
 3114 0723 9F       		.byte	0x9f
 3115 0724 40000000 		.4byte	.LVL96
 3116 0728 44000000 		.4byte	.LVL97
 3117 072c 0200     		.2byte	0x2
 3118 072e 30       		.byte	0x30
 3119 072f 9F       		.byte	0x9f
 3120 0730 44000000 		.4byte	.LVL97
 3121 0734 4A000000 		.4byte	.LVL99
 3122 0738 0200     		.2byte	0x2
 3123 073a 34       		.byte	0x34
 3124 073b 9F       		.byte	0x9f
 3125 073c 4A000000 		.4byte	.LVL99
 3126 0740 C4000000 		.4byte	.LVL107
 3127 0744 0100     		.2byte	0x1
 3128 0746 56       		.byte	0x56
 3129 0747 C4000000 		.4byte	.LVL107
 3130 074b FC000000 		.4byte	.LFE2
 3131 074f 0100     		.2byte	0x1
 3132 0751 50       		.byte	0x50
 3133 0752 00000000 		.4byte	0
 3134 0756 00000000 		.4byte	0
 3135              	.LLST24:
 3136 075a 00000000 		.4byte	.LVL109
 3137 075e 0C000000 		.4byte	.LVL111
 3138 0762 0100     		.2byte	0x1
 3139 0764 50       		.byte	0x50
 3140 0765 0C000000 		.4byte	.LVL111
 3141 0769 10000000 		.4byte	.LVL112
 3142 076d 0400     		.2byte	0x4
 3143 076f F3       		.byte	0xf3
 3144 0770 01       		.uleb128 0x1
 3145 0771 50       		.byte	0x50
 3146 0772 9F       		.byte	0x9f
 3147 0773 10000000 		.4byte	.LVL112
 3148 0777 A6000000 		.4byte	.LVL121
 3149 077b 0100     		.2byte	0x1
 3150 077d 54       		.byte	0x54
 3151 077e A6000000 		.4byte	.LVL121
 3152 0782 A8000000 		.4byte	.LVL122
 3153 0786 0100     		.2byte	0x1
 3154 0788 50       		.byte	0x50
 3155 0789 00000000 		.4byte	0
 3156 078d 00000000 		.4byte	0
 3157              	.LLST25:
 3158 0791 00000000 		.4byte	.LVL109
 3159 0795 2F000000 		.4byte	.LVL114-1
ARM GAS  C:\Users\raymond\AppData\Local\Temp\cc1iXpfr.s 			page 77


 3160 0799 0100     		.2byte	0x1
 3161 079b 51       		.byte	0x51
 3162 079c 2F000000 		.4byte	.LVL114-1
 3163 07a0 A6000000 		.4byte	.LVL121
 3164 07a4 0400     		.2byte	0x4
 3165 07a6 F3       		.byte	0xf3
 3166 07a7 01       		.uleb128 0x1
 3167 07a8 51       		.byte	0x51
 3168 07a9 9F       		.byte	0x9f
 3169 07aa A6000000 		.4byte	.LVL121
 3170 07ae A8000000 		.4byte	.LVL122
 3171 07b2 0100     		.2byte	0x1
 3172 07b4 51       		.byte	0x51
 3173 07b5 A8000000 		.4byte	.LVL122
 3174 07b9 C4000000 		.4byte	.LFE4
 3175 07bd 0400     		.2byte	0x4
 3176 07bf F3       		.byte	0xf3
 3177 07c0 01       		.uleb128 0x1
 3178 07c1 51       		.byte	0x51
 3179 07c2 9F       		.byte	0x9f
 3180 07c3 00000000 		.4byte	0
 3181 07c7 00000000 		.4byte	0
 3182              	.LLST26:
 3183 07cb 02000000 		.4byte	.LVL110
 3184 07cf 66000000 		.4byte	.LVL115
 3185 07d3 0200     		.2byte	0x2
 3186 07d5 30       		.byte	0x30
 3187 07d6 9F       		.byte	0x9f
 3188 07d7 66000000 		.4byte	.LVL115
 3189 07db 6C000000 		.4byte	.LVL116
 3190 07df 0200     		.2byte	0x2
 3191 07e1 31       		.byte	0x31
 3192 07e2 9F       		.byte	0x9f
 3193 07e3 6C000000 		.4byte	.LVL116
 3194 07e7 72000000 		.4byte	.LVL117
 3195 07eb 0200     		.2byte	0x2
 3196 07ed 30       		.byte	0x30
 3197 07ee 9F       		.byte	0x9f
 3198 07ef 72000000 		.4byte	.LVL117
 3199 07f3 7A000000 		.4byte	.LVL118
 3200 07f7 0200     		.2byte	0x2
 3201 07f9 31       		.byte	0x31
 3202 07fa 9F       		.byte	0x9f
 3203 07fb 7A000000 		.4byte	.LVL118
 3204 07ff 84000000 		.4byte	.LVL119
 3205 0803 0200     		.2byte	0x2
 3206 0805 30       		.byte	0x30
 3207 0806 9F       		.byte	0x9f
 3208 0807 84000000 		.4byte	.LVL119
 3209 080b 9E000000 		.4byte	.LVL120
 3210 080f 0100     		.2byte	0x1
 3211 0811 51       		.byte	0x51
 3212 0812 A6000000 		.4byte	.LVL121
 3213 0816 A8000000 		.4byte	.LVL122
 3214 081a 0200     		.2byte	0x2
 3215 081c 30       		.byte	0x30
 3216 081d 9F       		.byte	0x9f
ARM GAS  C:\Users\raymond\AppData\Local\Temp\cc1iXpfr.s 			page 78


 3217 081e 00000000 		.4byte	0
 3218 0822 00000000 		.4byte	0
 3219              	.LLST27:
 3220 0826 02000000 		.4byte	.LVL110
 3221 082a 66000000 		.4byte	.LVL115
 3222 082e 0200     		.2byte	0x2
 3223 0830 34       		.byte	0x34
 3224 0831 9F       		.byte	0x9f
 3225 0832 66000000 		.4byte	.LVL115
 3226 0836 6C000000 		.4byte	.LVL116
 3227 083a 0200     		.2byte	0x2
 3228 083c 31       		.byte	0x31
 3229 083d 9F       		.byte	0x9f
 3230 083e 6C000000 		.4byte	.LVL116
 3231 0842 72000000 		.4byte	.LVL117
 3232 0846 0200     		.2byte	0x2
 3233 0848 34       		.byte	0x34
 3234 0849 9F       		.byte	0x9f
 3235 084a 72000000 		.4byte	.LVL117
 3236 084e 7A000000 		.4byte	.LVL118
 3237 0852 0400     		.2byte	0x4
 3238 0854 0A       		.byte	0xa
 3239 0855 0001     		.2byte	0x100
 3240 0857 9F       		.byte	0x9f
 3241 0858 7A000000 		.4byte	.LVL118
 3242 085c 84000000 		.4byte	.LVL119
 3243 0860 0200     		.2byte	0x2
 3244 0862 34       		.byte	0x34
 3245 0863 9F       		.byte	0x9f
 3246 0864 84000000 		.4byte	.LVL119
 3247 0868 A6000000 		.4byte	.LVL121
 3248 086c 0100     		.2byte	0x1
 3249 086e 50       		.byte	0x50
 3250 086f A6000000 		.4byte	.LVL121
 3251 0873 A8000000 		.4byte	.LVL122
 3252 0877 0200     		.2byte	0x2
 3253 0879 34       		.byte	0x34
 3254 087a 9F       		.byte	0x9f
 3255 087b A8000000 		.4byte	.LVL122
 3256 087f C4000000 		.4byte	.LFE4
 3257 0883 0100     		.2byte	0x1
 3258 0885 50       		.byte	0x50
 3259 0886 00000000 		.4byte	0
 3260 088a 00000000 		.4byte	0
 3261              		.section	.debug_aranges,"",%progbits
 3262 0000 84000000 		.4byte	0x84
 3263 0004 0200     		.2byte	0x2
 3264 0006 00000000 		.4byte	.Ldebug_info0
 3265 000a 04       		.byte	0x4
 3266 000b 00       		.byte	0
 3267 000c 0000     		.2byte	0
 3268 000e 0000     		.2byte	0
 3269 0010 00000000 		.4byte	.LFB3
 3270 0014 D8000000 		.4byte	.LFE3-.LFB3
 3271 0018 00000000 		.4byte	.LFB5
 3272 001c 8C000000 		.4byte	.LFE5-.LFB5
 3273 0020 00000000 		.4byte	.LFB6
ARM GAS  C:\Users\raymond\AppData\Local\Temp\cc1iXpfr.s 			page 79


 3274 0024 98000000 		.4byte	.LFE6-.LFB6
 3275 0028 00000000 		.4byte	.LFB7
 3276 002c 84000000 		.4byte	.LFE7-.LFB7
 3277 0030 00000000 		.4byte	.LFB8
 3278 0034 0C000000 		.4byte	.LFE8-.LFB8
 3279 0038 00000000 		.4byte	.LFB9
 3280 003c 0C000000 		.4byte	.LFE9-.LFB9
 3281 0040 00000000 		.4byte	.LFB10
 3282 0044 28000000 		.4byte	.LFE10-.LFB10
 3283 0048 00000000 		.4byte	.LFB11
 3284 004c 28000000 		.4byte	.LFE11-.LFB11
 3285 0050 00000000 		.4byte	.LFB12
 3286 0054 30000000 		.4byte	.LFE12-.LFB12
 3287 0058 00000000 		.4byte	.LFB13
 3288 005c 20000000 		.4byte	.LFE13-.LFB13
 3289 0060 00000000 		.4byte	.LFB14
 3290 0064 20000000 		.4byte	.LFE14-.LFB14
 3291 0068 00000000 		.4byte	.LFB1
 3292 006c EC000000 		.4byte	.LFE1-.LFB1
 3293 0070 00000000 		.4byte	.LFB2
 3294 0074 FC000000 		.4byte	.LFE2-.LFB2
 3295 0078 00000000 		.4byte	.LFB4
 3296 007c C4000000 		.4byte	.LFE4-.LFB4
 3297 0080 00000000 		.4byte	0
 3298 0084 00000000 		.4byte	0
 3299              		.section	.debug_ranges,"",%progbits
 3300              	.Ldebug_ranges0:
 3301 0000 00000000 		.4byte	.LFB3
 3302 0004 D8000000 		.4byte	.LFE3
 3303 0008 00000000 		.4byte	.LFB5
 3304 000c 8C000000 		.4byte	.LFE5
 3305 0010 00000000 		.4byte	.LFB6
 3306 0014 98000000 		.4byte	.LFE6
 3307 0018 00000000 		.4byte	.LFB7
 3308 001c 84000000 		.4byte	.LFE7
 3309 0020 00000000 		.4byte	.LFB8
 3310 0024 0C000000 		.4byte	.LFE8
 3311 0028 00000000 		.4byte	.LFB9
 3312 002c 0C000000 		.4byte	.LFE9
 3313 0030 00000000 		.4byte	.LFB10
 3314 0034 28000000 		.4byte	.LFE10
 3315 0038 00000000 		.4byte	.LFB11
 3316 003c 28000000 		.4byte	.LFE11
 3317 0040 00000000 		.4byte	.LFB12
 3318 0044 30000000 		.4byte	.LFE12
 3319 0048 00000000 		.4byte	.LFB13
 3320 004c 20000000 		.4byte	.LFE13
 3321 0050 00000000 		.4byte	.LFB14
 3322 0054 20000000 		.4byte	.LFE14
 3323 0058 00000000 		.4byte	.LFB1
 3324 005c EC000000 		.4byte	.LFE1
 3325 0060 00000000 		.4byte	.LFB2
 3326 0064 FC000000 		.4byte	.LFE2
 3327 0068 00000000 		.4byte	.LFB4
 3328 006c C4000000 		.4byte	.LFE4
 3329 0070 00000000 		.4byte	0
 3330 0074 00000000 		.4byte	0
ARM GAS  C:\Users\raymond\AppData\Local\Temp\cc1iXpfr.s 			page 80


 3331              		.section	.debug_line,"",%progbits
 3332              	.Ldebug_line0:
 3333 0000 95020000 		.section	.debug_str,"MS",%progbits,1
 3333      02006B00 
 3333      00000201 
 3333      FB0E0D00 
 3333      01010101 
 3334              	.LASF15:
 3335 0000 72656733 		.ascii	"reg32\000"
 3335      3200
 3336              	.LASF28:
 3337 0006 4932435F 		.ascii	"I2C_1_I2CMasterGetWriteBufSize\000"
 3337      315F4932 
 3337      434D6173 
 3337      74657247 
 3337      65745772 
 3338              	.LASF32:
 3339 0025 73746174 		.ascii	"status\000"
 3339      757300
 3340              	.LASF46:
 3341 002c 4932435F 		.ascii	"I2C_1_mstrRdBufIndex\000"
 3341      315F6D73 
 3341      74725264 
 3341      42756649 
 3341      6E646578 
 3342              	.LASF43:
 3343 0041 4932435F 		.ascii	"I2C_1_mstrControl\000"
 3343      315F6D73 
 3343      7472436F 
 3343      6E74726F 
 3343      6C00
 3344              	.LASF47:
 3345 0053 4932435F 		.ascii	"I2C_1_mstrWrBufPtr\000"
 3345      315F6D73 
 3345      74725772 
 3345      42756650 
 3345      747200
 3346              	.LASF3:
 3347 0066 73686F72 		.ascii	"short unsigned int\000"
 3347      7420756E 
 3347      7369676E 
 3347      65642069 
 3347      6E7400
 3348              	.LASF48:
 3349 0079 4932435F 		.ascii	"I2C_1_mstrWrBufSize\000"
 3349      315F6D73 
 3349      74725772 
 3349      42756653 
 3349      697A6500 
 3350              	.LASF42:
 3351 008d 4932435F 		.ascii	"I2C_1_mstrStatus\000"
 3351      315F6D73 
 3351      74725374 
 3351      61747573 
 3351      00
 3352              	.LASF19:
 3353 009e 72657365 		.ascii	"resetIp\000"
ARM GAS  C:\Users\raymond\AppData\Local\Temp\cc1iXpfr.s 			page 81


 3353      74497000 
 3354              	.LASF29:
 3355 00a6 4932435F 		.ascii	"I2C_1_I2CMasterClearReadBuf\000"
 3355      315F4932 
 3355      434D6173 
 3355      74657243 
 3355      6C656172 
 3356              	.LASF12:
 3357 00c2 666C6F61 		.ascii	"float\000"
 3357      7400
 3358              	.LASF1:
 3359 00c8 756E7369 		.ascii	"unsigned char\000"
 3359      676E6564 
 3359      20636861 
 3359      7200
 3360              	.LASF51:
 3361 00d6 474E5520 		.ascii	"GNU C 4.9.3 20150303 (release) [ARM/embedded-4_9-br"
 3361      4320342E 
 3361      392E3320 
 3361      32303135 
 3361      30333033 
 3362 0109 616E6368 		.ascii	"anch revision 221220] -mcpu=cortex-m0plus -mthumb -"
 3362      20726576 
 3362      6973696F 
 3362      6E203232 
 3362      31323230 
 3363 013c 67202D4F 		.ascii	"g -Og -ffunction-sections -ffat-lto-objects\000"
 3363      67202D66 
 3363      66756E63 
 3363      74696F6E 
 3363      2D736563 
 3364              	.LASF23:
 3365 0168 4932435F 		.ascii	"I2C_1_I2CMasterWriteByte\000"
 3365      315F4932 
 3365      434D6173 
 3365      74657257 
 3365      72697465 
 3366              	.LASF5:
 3367 0181 6C6F6E67 		.ascii	"long unsigned int\000"
 3367      20756E73 
 3367      69676E65 
 3367      6420696E 
 3367      7400
 3368              	.LASF33:
 3369 0193 4932435F 		.ascii	"I2C_1_I2CMasterClearStatus\000"
 3369      315F4932 
 3369      434D6173 
 3369      74657243 
 3369      6C656172 
 3370              	.LASF9:
 3371 01ae 75696E74 		.ascii	"uint8\000"
 3371      3800
 3372              	.LASF26:
 3373 01b4 61636B4E 		.ascii	"ackNack\000"
 3373      61636B00 
 3374              	.LASF20:
 3375 01bc 65727253 		.ascii	"errStatus\000"
ARM GAS  C:\Users\raymond\AppData\Local\Temp\cc1iXpfr.s 			page 82


 3375      74617475 
 3375      7300
 3376              	.LASF13:
 3377 01c6 646F7562 		.ascii	"double\000"
 3377      6C6500
 3378              	.LASF30:
 3379 01cd 4932435F 		.ascii	"I2C_1_I2CMasterClearWriteBuf\000"
 3379      315F4932 
 3379      434D6173 
 3379      74657243 
 3379      6C656172 
 3380              	.LASF18:
 3381 01ea 62697452 		.ascii	"bitRnW\000"
 3381      6E5700
 3382              	.LASF34:
 3383 01f1 4932435F 		.ascii	"I2C_1_I2CReStartGeneration\000"
 3383      315F4932 
 3383      43526553 
 3383      74617274 
 3383      47656E65 
 3384              	.LASF55:
 3385 020c 4379496E 		.ascii	"CyIntEnable\000"
 3385      74456E61 
 3385      626C6500 
 3386              	.LASF50:
 3387 0218 4932435F 		.ascii	"I2C_1_mstrWrBufIndexTmp\000"
 3387      315F6D73 
 3387      74725772 
 3387      42756649 
 3387      6E646578 
 3388              	.LASF53:
 3389 0230 5C5C4D61 		.ascii	"\\\\Mac\\Home\\Documents\\IUSB\\IU\\Spring-2017\\CS"
 3389      635C486F 
 3389      6D655C44 
 3389      6F63756D 
 3389      656E7473 
 3390 025b 43492D42 		.ascii	"CI-B541\\project\\Project 2\\Project-WhileYouWereOu"
 3390      3534315C 
 3390      70726F6A 
 3390      6563745C 
 3390      50726F6A 
 3391 028b 742D6D61 		.ascii	"t-master\\PSOCFirmware\\BabyRoomWatcher.cydsn\000"
 3391      73746572 
 3391      5C50534F 
 3391      43466972 
 3391      6D776172 
 3392              	.LASF10:
 3393 02b7 75696E74 		.ascii	"uint16\000"
 3393      313600
 3394              	.LASF31:
 3395 02be 4932435F 		.ascii	"I2C_1_I2CMasterStatus\000"
 3395      315F4932 
 3395      434D6173 
 3395      74657253 
 3395      74617475 
 3396              	.LASF39:
 3397 02d4 72644461 		.ascii	"rdData\000"
ARM GAS  C:\Users\raymond\AppData\Local\Temp\cc1iXpfr.s 			page 83


 3397      746100
 3398              	.LASF11:
 3399 02db 75696E74 		.ascii	"uint32\000"
 3399      333200
 3400              	.LASF41:
 3401 02e2 4932435F 		.ascii	"I2C_1_state\000"
 3401      315F7374 
 3401      61746500 
 3402              	.LASF8:
 3403 02ee 756E7369 		.ascii	"unsigned int\000"
 3403      676E6564 
 3403      20696E74 
 3403      00
 3404              	.LASF36:
 3405 02fb 77724461 		.ascii	"wrData\000"
 3405      746100
 3406              	.LASF7:
 3407 0302 6C6F6E67 		.ascii	"long long unsigned int\000"
 3407      206C6F6E 
 3407      6720756E 
 3407      7369676E 
 3407      65642069 
 3408              	.LASF21:
 3409 0319 4932435F 		.ascii	"I2C_1_I2CMasterSendStart\000"
 3409      315F4932 
 3409      434D6173 
 3409      74657253 
 3409      656E6453 
 3410              	.LASF37:
 3411 0332 6D6F6465 		.ascii	"mode\000"
 3411      00
 3412              	.LASF17:
 3413 0337 736C6176 		.ascii	"slaveAddress\000"
 3413      65416464 
 3413      72657373 
 3413      00
 3414              	.LASF45:
 3415 0344 4932435F 		.ascii	"I2C_1_mstrRdBufSize\000"
 3415      315F6D73 
 3415      74725264 
 3415      42756653 
 3415      697A6500 
 3416              	.LASF52:
 3417 0358 47656E65 		.ascii	"Generated_Source\\PSoC4\\I2C_1_I2C_MASTER.c\000"
 3417      72617465 
 3417      645F536F 
 3417      75726365 
 3417      5C50536F 
 3418              	.LASF25:
 3419 0382 4932435F 		.ascii	"I2C_1_I2CMasterReadByte\000"
 3419      315F4932 
 3419      434D6173 
 3419      74657252 
 3419      65616442 
 3420              	.LASF16:
 3421 039a 73697A65 		.ascii	"sizetype\000"
 3421      74797065 
ARM GAS  C:\Users\raymond\AppData\Local\Temp\cc1iXpfr.s 			page 84


 3421      00
 3422              	.LASF6:
 3423 03a3 6C6F6E67 		.ascii	"long long int\000"
 3423      206C6F6E 
 3423      6720696E 
 3423      7400
 3424              	.LASF22:
 3425 03b1 4932435F 		.ascii	"I2C_1_I2CMasterSendStop\000"
 3425      315F4932 
 3425      434D6173 
 3425      74657253 
 3425      656E6453 
 3426              	.LASF14:
 3427 03c9 63686172 		.ascii	"char\000"
 3427      00
 3428              	.LASF44:
 3429 03ce 4932435F 		.ascii	"I2C_1_mstrRdBufPtr\000"
 3429      315F6D73 
 3429      74725264 
 3429      42756650 
 3429      747200
 3430              	.LASF54:
 3431 03e1 4379496E 		.ascii	"CyIntDisable\000"
 3431      74446973 
 3431      61626C65 
 3431      00
 3432              	.LASF27:
 3433 03ee 4932435F 		.ascii	"I2C_1_I2CMasterGetReadBufSize\000"
 3433      315F4932 
 3433      434D6173 
 3433      74657247 
 3433      65745265 
 3434              	.LASF2:
 3435 040c 73686F72 		.ascii	"short int\000"
 3435      7420696E 
 3435      7400
 3436              	.LASF24:
 3437 0416 74686542 		.ascii	"theByte\000"
 3437      79746500 
 3438              	.LASF49:
 3439 041e 4932435F 		.ascii	"I2C_1_mstrWrBufIndex\000"
 3439      315F6D73 
 3439      74725772 
 3439      42756649 
 3439      6E646578 
 3440              	.LASF4:
 3441 0433 6C6F6E67 		.ascii	"long int\000"
 3441      20696E74 
 3441      00
 3442              	.LASF0:
 3443 043c 7369676E 		.ascii	"signed char\000"
 3443      65642063 
 3443      68617200 
 3444              	.LASF40:
 3445 0448 4932435F 		.ascii	"I2C_1_I2CMasterSendRestart\000"
 3445      315F4932 
 3445      434D6173 
ARM GAS  C:\Users\raymond\AppData\Local\Temp\cc1iXpfr.s 			page 85


 3445      74657253 
 3445      656E6452 
 3446              	.LASF38:
 3447 0463 4932435F 		.ascii	"I2C_1_I2CMasterReadBuf\000"
 3447      315F4932 
 3447      434D6173 
 3447      74657252 
 3447      65616442 
 3448              	.LASF35:
 3449 047a 4932435F 		.ascii	"I2C_1_I2CMasterWriteBuf\000"
 3449      315F4932 
 3449      434D6173 
 3449      74657257 
 3449      72697465 
 3450              		.ident	"GCC: (GNU Tools for ARM Embedded Processors) 4.9.3 20150303 (release) [ARM/embedded-4_9-br
