ARM GAS  C:\Users\raymond\AppData\Local\Temp\ccaxBqgY.s 			page 1


   1              		.cpu cortex-m0plus
   2              		.fpu softvfp
   3              		.eabi_attribute 20, 1
   4              		.eabi_attribute 21, 1
   5              		.eabi_attribute 23, 3
   6              		.eabi_attribute 24, 1
   7              		.eabi_attribute 25, 1
   8              		.eabi_attribute 26, 1
   9              		.eabi_attribute 30, 1
  10              		.eabi_attribute 34, 0
  11              		.eabi_attribute 18, 4
  12              		.code	16
  13              		.file	"main.c"
  14              		.text
  15              	.Ltext0:
  16              		.cfi_sections	.debug_frame
  17              		.section	.text.TIMEBASE_ISR,"ax",%progbits
  18              		.align	2
  19              		.global	TIMEBASE_ISR
  20              		.code	16
  21              		.thumb_func
  22              		.type	TIMEBASE_ISR, %function
  23              	TIMEBASE_ISR:
  24              	.LFB37:
  25              		.file 1 "main.c"
   1:main.c        **** /*
   2:main.c        ****     Project:    While you were away
   3:main.c        ****     By:         Inderpreet Singh
   4:main.c        ****     Ver:        0.1
   5:main.c        **** */
   6:main.c        **** 
   7:main.c        **** #include <project.h>
   8:main.c        **** #include <my_macros.h>
   9:main.c        **** 
  10:main.c        **** 
  11:main.c        **** /* Function Prototypes */
  12:main.c        **** void InitResources(void );
  13:main.c        **** CY_ISR(TIMEBASE_ISR);
  14:main.c        **** __inline uint16 CalculateCapacitance(uint16 rawCounts, uint16 refSensorCounts);
  15:main.c        **** __inline uint16 CalculateHumidity(uint16 capacitance);
  16:main.c        **** 
  17:main.c        **** 
  18:main.c        **** // Declare i2cbuffer to exchange data.
  19:main.c        **** psoc_data i2cBuffer = {
  20:main.c        ****                         THREE_FEET,             /* PIR detection distance */
  21:main.c        ****                         SENSOR_RAW_INITIAL,     /* ADC result */
  22:main.c        ****                         PIR_WINDOW_HIGH_3FT,    /* High threshold for motion detection */
  23:main.c        ****                         PIR_WINDOW_LOW_3FT,     /* Low threshold for motion detection */
  24:main.c        ****                         MOTION_NOT_DETECTED,    /* Motion detection flag */
  25:main.c        ****                         0x0000, //Temperature
  26:main.c        ****                         0x0000, //Illuminicance
  27:main.c        ****                         0x0000  //Humidity
  28:main.c        **** };
  29:main.c        **** // ************************************************************************************************
  30:main.c        **** int main()
  31:main.c        **** {
  32:main.c        **** 	int16 sensorRawValue = 0; /* Sensor raw value */
ARM GAS  C:\Users\raymond\AppData\Local\Temp\ccaxBqgY.s 			page 2


  33:main.c        ****     int16 highThreshold = PIR_WINDOW_HIGH_3FT;	/* Motion detection thresholds */	                  
  34:main.c        **** 	int16 lowThreshold = PIR_WINDOW_LOW_3FT;
  35:main.c        ****     uint8 prevDetectionDistance = THREE_FEET; // Variable that stores previous detection distance
  36:main.c        ****     uint8 interruptState = 0; /* Variable to store the status returned by CyEnterCriticalSection() 
  37:main.c        ****    
  38:main.c        **** 	int16 filterInput; /* These are used for firmware low pass filter input and output */
  39:main.c        **** 	int32 filterOutput = 0;
  40:main.c        **** 	
  41:main.c        ****     int16 alsCurrent;     /* Variable to store sensor current and light illuminance */
  42:main.c        ****     uint16 illuminance;
  43:main.c        ****     int16 adcResult;
  44:main.c        ****     
  45:main.c        ****     int16 adcResultVREF, adcResultVTH; /* Variables to hold the the ADC readings */
  46:main.c        ****     int16 filterOutputVref=0;     /* Filter input and output variables for Vref and Vth measurement
  47:main.c        ****     int16 filterOutputVth=0;
  48:main.c        ****     int16 thermistorResistance, temperature;     /* Variables to hold calculated resistance and tem
  49:main.c        ****     uint16 capacitance=0;
  50:main.c        ****     uint16 humidityRawCounts=0;
  51:main.c        ****     uint16 rawCountsRefCap;
  52:main.c        ****     
  53:main.c        ****     //uint8 light;
  54:main.c        ****     
  55:main.c        ****     CyGlobalIntEnable; /* Enable global interrupts */ 
  56:main.c        ****     InitResources();    /* Initialize all the hardware resources */
  57:main.c        ****     
  58:main.c        ****     for(;;)
  59:main.c        ****     {   
  60:main.c        ****         /* If the master(BCP) changed the detection distance, change the second stage 
  61:main.c        ****             amplifier (PGA) gain and the thresholds for the required detection distance*/
  62:main.c        ****         if (i2cBuffer.detectionDistance != prevDetectionDistance)
  63:main.c        ****         {
  64:main.c        ****             prevDetectionDistance = i2cBuffer.detectionDistance;
  65:main.c        ****             switch (i2cBuffer.detectionDistance) /* Set the required detection distance */
  66:main.c        ****             {
  67:main.c        ****                 case THREE_FEET:
  68:main.c        ****                     /* Set second stage PGA gain and thresholds that gives 
  69:main.c        ****                         3 feet detection distance */
  70:main.c        ****                     PIRAmplifierStage2_SetGain(PIRAmplifierStage2_GAIN_1);
  71:main.c        ****                     highThreshold = PIR_WINDOW_HIGH_3FT;
  72:main.c        ****                     lowThreshold = PIR_WINDOW_LOW_3FT;
  73:main.c        ****                     break;
  74:main.c        ****                 case TEN_FEET:
  75:main.c        ****                     /* Set second stage PGA gain and thresholds that gives 
  76:main.c        ****                         10 feet detection distance */
  77:main.c        ****                     PIRAmplifierStage2_SetGain(PIRAmplifierStage2_GAIN_2);
  78:main.c        ****                     highThreshold = PIR_WINDOW_HIGH_10FT;
  79:main.c        ****                     lowThreshold = PIR_WINDOW_LOW_10FT;
  80:main.c        ****                     break;
  81:main.c        ****                 case TWENTY_FEET:
  82:main.c        ****                     /* Set second stage PGA gain and thresholds that gives 
  83:main.c        ****                         20 feet detection distance */
  84:main.c        ****                     PIRAmplifierStage2_SetGain(PIRAmplifierStage2_GAIN_32);
  85:main.c        ****                     highThreshold = PIR_WINDOW_HIGH_20FT;
  86:main.c        ****                     lowThreshold = PIR_WINDOW_LOW_20FT;
  87:main.c        ****                     break;
  88:main.c        ****                 default:
  89:main.c        ****                     /* Set second stage PGA gain and thresholds that gives 
ARM GAS  C:\Users\raymond\AppData\Local\Temp\ccaxBqgY.s 			page 3


  90:main.c        ****                         3 feet detection distance */
  91:main.c        ****                     PIRAmplifierStage2_SetGain(PIRAmplifierStage2_GAIN_1);
  92:main.c        ****                     highThreshold = PIR_WINDOW_HIGH_3FT;
  93:main.c        ****                     lowThreshold = PIR_WINDOW_LOW_3FT;
  94:main.c        ****                     break;
  95:main.c        ****             }
  96:main.c        ****         }            
  97:main.c        ****         
  98:main.c        ****         // Select Channel and start conversion for PIR
  99:main.c        ****         if(ADC_IsEndConversion(ADC_RETURN_STATUS)) /* Check if ADC data is ready */
 100:main.c        ****         {
 101:main.c        ****             sensorRawValue = ADC_GetResult16(ADC_CHANNEL_PIR); /* Read ADC result */
 102:main.c        ****             if((sensorRawValue > highThreshold) ||  /* Check if motion is detected */
 103:main.c        ****                (sensorRawValue < lowThreshold)){
 104:main.c        ****                 Timebase5s_Stop(); /* Stop the timer */
 105:main.c        **** 				Timebase5s_WriteCounter(Timebase5s_TC_PERIOD_VALUE); /* Reload the counter */
 106:main.c        ****                 Timebase5s_Start(); /* Start the 5s timer */
 107:main.c        **** 				i2cBuffer.motionDetected = MOTION_DETECTED; /* Update the status of motion detection */
 108:main.c        **** //                Pin_LED_Write(LED_ON); /* Turn ON the LED */
 109:main.c        ****                 
 110:main.c        ****                 interruptState = CyEnterCriticalSection();
 111:main.c        ****         	    if(!(EzI2C_EzI2CGetActivity() & EzI2C_EZI2C_STATUS_BUSY)){
 112:main.c        ****                     /* Update I2C Buffer */
 113:main.c        ****                     i2cBuffer.sensorRawValue = sensorRawValue;
 114:main.c        **** 			        i2cBuffer.highThreshold = highThreshold;
 115:main.c        **** 			        i2cBuffer.lowThreshold = lowThreshold;
 116:main.c        ****                 }
 117:main.c        ****                 CyExitCriticalSection(interruptState);        
 118:main.c        ****             }
 119:main.c        ****         } 
 120:main.c        **** 		
 121:main.c        ****         //++++++++++++++++++++++++++++++++++++++++++++++++++++++++++++++++++++++++++++
 122:main.c        ****         // Code for Ambient Light stuff
 123:main.c        ****         // Select and start ADC conversion for Ambient Light
 124:main.c        ****         if(ADC_IsEndConversion(ADC_RETURN_STATUS))
 125:main.c        **** 		{			
 126:main.c        **** 			adcResult = ADC_GetResult16(ADC_CHANNEL_ALS);	/* Get the ADC result */
 127:main.c        **** 			filterInput = adcResult; /* Low pass filter the ADC result */
 128:main.c        ****     		filterOutput = (filterInput + (FILTER_COEFFICIENT_ALS - 1)*filterOutput)/FILTER_COEFFICIENT_A
 129:main.c        **** 			alsCurrent = (filterOutput * ALS_CURRENT_SCALE_FACTOR_NUMERATOR)/ALS_CURRENT_SCALE_FACTOR_DENOMI
 130:main.c        **** 			/* If the calculated current is negative, limit it to zero */
 131:main.c        **** 			if(alsCurrent < 0)
 132:main.c        **** 			{
 133:main.c        **** 				alsCurrent = 0;
 134:main.c        **** 			}
 135:main.c        **** 			illuminance = (alsCurrent * ALS_LIGHT_SCALE_FACTOR_NUMERATOR)/ALS_LIGHT_SCALE_FACTOR_DENOMINATOR
 136:main.c        ****             
 137:main.c        ****             interruptState = CyEnterCriticalSection();
 138:main.c        ****         	if(!(EzI2C_EzI2CGetActivity() & EzI2C_EZI2C_STATUS_BUSY)){
 139:main.c        ****                 /* Update I2C Buffer */
 140:main.c        ****                 // i2cBuffer.alsCurrent = alsCurrent;
 141:main.c        **** 		        i2cBuffer.illuminance = illuminance;
 142:main.c        ****             }
 143:main.c        ****             CyExitCriticalSection(interruptState);
 144:main.c        ****         }
 145:main.c        ****         
 146:main.c        ****         
ARM GAS  C:\Users\raymond\AppData\Local\Temp\ccaxBqgY.s 			page 4


 147:main.c        ****         //++++++++++++++++++++++++++++++++++++++++++++++++++++++++++++++++++++++++++
 148:main.c        ****         // Code for Temperature Measurement
 149:main.c        ****         // Select and start ADC Conversion for Thirmistor
 150:main.c        ****         
 151:main.c        ****         if(ADC_IsEndConversion(ADC_RETURN_STATUS))
 152:main.c        ****         {
 153:main.c        ****             adcResultVREF = ADC_GetResult16(ADC_CHANNEL_VREF); /* Read the ADC result for reference
 154:main.c        ****             adcResultVTH = ADC_GetResult16(ADC_CHANNEL_VTH);
 155:main.c        ****             /* Low pass filter the measured ADC counts of Vref */            
 156:main.c        ****             filterOutputVref = (adcResultVREF + (FILTER_COEFFICIENT_TEMPERATURE - 1) * filterOutput
 157:main.c        ****             /* Low pass filter the measured ADC counts of Vth */         
 158:main.c        ****             filterOutputVth = (adcResultVTH + (FILTER_COEFFICIENT_TEMPERATURE - 1) * filterOutputVt
 159:main.c        ****             /* Calculate thermistor resistance */
 160:main.c        ****             thermistorResistance = Thermistor_GetResistance(filterOutputVref, filterOutputVth);    
 161:main.c        ****             /* Calculate temperature in degree Celsius using the Component API */
 162:main.c        ****             temperature = Thermistor_GetTemperature(thermistorResistance);
 163:main.c        ****             
 164:main.c        ****             interruptState = CyEnterCriticalSection();
 165:main.c        ****         	if(!(EzI2C_EzI2CGetActivity() & EzI2C_EZI2C_STATUS_BUSY)){
 166:main.c        ****                 /* Update I2C Buffer */
 167:main.c        ****                 //i2cBuffer.Vth = filterOutputVth;
 168:main.c        **** 		        //i2cBuffer.Rth = thermistorResistance;
 169:main.c        ****                 i2cBuffer.temperature = temperature;
 170:main.c        ****             }
 171:main.c        ****             CyExitCriticalSection(interruptState);
 172:main.c        ****         }
 173:main.c        ****         
 174:main.c        ****         /* Check if CapSense scan is complete */
 175:main.c        ****         if(!(CSD_IsBusy()))
 176:main.c        ****         {       
 177:main.c        ****             /* Enter critical section to check if I2C bus is busy or not */
 178:main.c        ****             interruptState = CyEnterCriticalSection();
 179:main.c        **** 
 180:main.c        ****             if(!(EzI2C_EzI2CGetActivity() & EzI2C_EZI2C_STATUS_BUSY))
 181:main.c        ****             {
 182:main.c        ****                // i2cBuffer.humidityRawCounts = CSD_BUTTON0_SNS0_RAW0_VALUE;
 183:main.c        ****                // i2cBuffer.rawCountsRefCap = CSD_BUTTON0_SNS1_RAW0_VALUE;
 184:main.c        ****                 /* Convert raw counts to capacitance */
 185:main.c        ****                // i2cBuffer.capacitance = CalculateCapacitance(i2cBuffer.humidityRawCounts, i2cBuff
 186:main.c        ****                 capacitance = CalculateCapacitance(humidityRawCounts, rawCountsRefCap);
 187:main.c        ****                 /* Calculate humidity */
 188:main.c        ****                 i2cBuffer.humidity = CalculateHumidity(capacitance);                
 189:main.c        ****             }
 190:main.c        ****             CyExitCriticalSection(interruptState);
 191:main.c        ****             /* Scan sensors */
 192:main.c        ****             CSD_ScanAllWidgets();
 193:main.c        ****         }
 194:main.c        ****         
 195:main.c        ****         /*  Set up I2C as master */
 196:main.c        ****         /* Attempt to initiate communication with the slave until the function
 197:main.c        ****          * completes without error.
 198:main.c        ****          */
 199:main.c        ****         
 200:main.c        ****         //do
 201:main.c        ****         {
 202:main.c        ****             /* automatically writes a buffer of data to a slave
 203:main.c        ****              * device from start to stop.
ARM GAS  C:\Users\raymond\AppData\Local\Temp\ccaxBqgY.s 			page 5


 204:main.c        ****               */
 205:main.c        ****         //    light = I2C_1_I2CMasterWriteBuf(I2C_1_I2C_SLAVE_ADDRESS, (uint8 *)&i2cBuffer,
 206:main.c        ****                             //            WR_BUFFER_SIZE, I2C_1_I2C_MODE_COMPLETE_XFER);
 207:main.c        ****         }
 208:main.c        ****         //while (light != I2C_1_I2C_MSTR_NO_ERROR);
 209:main.c        **** 
 210:main.c        ****         /* Wait for the data transfer to complete */
 211:main.c        ****         //while(I2C_1_I2CMasterStatus() & I2C_1_I2C_MSTAT_XFER_INP);
 212:main.c        ****     }    
 213:main.c        **** }
 214:main.c        **** 
 215:main.c        **** /*******************************************************************************
 216:main.c        **** * Function Name: void InitResources(void)
 217:main.c        **** *******************************************************************************/
 218:main.c        **** void InitResources(void)
 219:main.c        **** {
 220:main.c        ****     /* Start EZI2C Slave Component and initialize buffer */
 221:main.c        ****     EzI2C_Start();
 222:main.c        ****     EzI2C_EzI2CSetBuffer1(sizeof(i2cBuffer), READ_WRITE_BOUNDARY, (uint8*)&i2cBuffer);
 223:main.c        ****    
 224:main.c        ****     
 225:main.c        ****     /* Enable LED timebase ISR */
 226:main.c        ****     isr_Timebase5s_Start();
 227:main.c        ****     isr_Timebase5s_StartEx(TIMEBASE_ISR);   
 228:main.c        ****     
 229:main.c        ****     /* Start the Scanning SAR ADC Component and start conversion */
 230:main.c        ****     ADC_Start();
 231:main.c        ****     ADC_StartConvert();
 232:main.c        ****     
 233:main.c        ****     /* Start the Reference Buffer */
 234:main.c        ****     RefBuffer_Start();
 235:main.c        ****     
 236:main.c        ****     /* Start Programmable Voltage Reference */
 237:main.c        ****     PVref_Start();
 238:main.c        ****     
 239:main.c        ****     /* Enable Programmable Voltage Reference */
 240:main.c        ****     PVref_Enable();
 241:main.c        ****     
 242:main.c        ****     /* Start the first stage amplifier */
 243:main.c        ****     PIRAmplifierStage1_Start();
 244:main.c        ****     
 245:main.c        ****     /* Start the second stage amplifier (PGA) */
 246:main.c        ****     PIRAmplifierStage2_Start();    
 247:main.c        ****     
 248:main.c        ****     // Start Opamp 1
 249:main.c        ****     Opamp_1_Start();
 250:main.c        ****     
 251:main.c        ****     /* Start CapSense Component */
 252:main.c        ****     CSD_Start();    
 253:main.c        ****     
 254:main.c        ****     //I2C_1_Start(); 
 255:main.c        ****  }
 256:main.c        **** 
 257:main.c        **** /*******************************************************************************
 258:main.c        **** * Function Name: CY_ISR(TIMEBASE_ISR)
 259:main.c        **** ********************************************************************************/
 260:main.c        **** CY_ISR(TIMEBASE_ISR)
ARM GAS  C:\Users\raymond\AppData\Local\Temp\ccaxBqgY.s 			page 6


 261:main.c        **** {
  26              		.loc 1 261 0
  27              		.cfi_startproc
  28 0000 08B5     		push	{r3, lr}
  29              		.cfi_def_cfa_offset 8
  30              		.cfi_offset 3, -8
  31              		.cfi_offset 14, -4
 262:main.c        ****    	/* Reset the motion detection flag */
 263:main.c        ****     i2cBuffer.motionDetected = MOTION_NOT_DETECTED;
  32              		.loc 1 263 0
  33 0002 0022     		mov	r2, #0
  34 0004 024B     		ldr	r3, .L2
  35 0006 DA71     		strb	r2, [r3, #7]
 264:main.c        ****     /* Turn OFF the LED */
 265:main.c        **** //    Pin_LED_Write(LED_OFF);
 266:main.c        ****     /* Stop the 5s timer */
 267:main.c        ****     Timebase5s_Stop();
  36              		.loc 1 267 0
  37 0008 FFF7FEFF 		bl	Timebase5s_Stop
  38              	.LVL0:
 268:main.c        **** }
  39              		.loc 1 268 0
  40              		@ sp needed
  41 000c 08BD     		pop	{r3, pc}
  42              	.L3:
  43 000e C046     		.align	2
  44              	.L2:
  45 0010 00000000 		.word	.LANCHOR0
  46              		.cfi_endproc
  47              	.LFE37:
  48              		.size	TIMEBASE_ISR, .-TIMEBASE_ISR
  49              		.section	.text.InitResources,"ax",%progbits
  50              		.align	2
  51              		.global	InitResources
  52              		.code	16
  53              		.thumb_func
  54              		.type	InitResources, %function
  55              	InitResources:
  56              	.LFB36:
 219:main.c        ****     /* Start EZI2C Slave Component and initialize buffer */
  57              		.loc 1 219 0
  58              		.cfi_startproc
  59 0000 08B5     		push	{r3, lr}
  60              		.cfi_def_cfa_offset 8
  61              		.cfi_offset 3, -8
  62              		.cfi_offset 14, -4
 221:main.c        ****     EzI2C_EzI2CSetBuffer1(sizeof(i2cBuffer), READ_WRITE_BOUNDARY, (uint8*)&i2cBuffer);
  63              		.loc 1 221 0
  64 0002 FFF7FEFF 		bl	EzI2C_Start
  65              	.LVL1:
 222:main.c        ****    
  66              		.loc 1 222 0
  67 0006 0E20     		mov	r0, #14
  68 0008 0121     		mov	r1, #1
  69 000a 0D4A     		ldr	r2, .L5
  70 000c FFF7FEFF 		bl	EzI2C_EzI2CSetBuffer1
  71              	.LVL2:
ARM GAS  C:\Users\raymond\AppData\Local\Temp\ccaxBqgY.s 			page 7


 226:main.c        ****     isr_Timebase5s_StartEx(TIMEBASE_ISR);   
  72              		.loc 1 226 0
  73 0010 FFF7FEFF 		bl	isr_Timebase5s_Start
  74              	.LVL3:
 227:main.c        ****     
  75              		.loc 1 227 0
  76 0014 0B48     		ldr	r0, .L5+4
  77 0016 FFF7FEFF 		bl	isr_Timebase5s_StartEx
  78              	.LVL4:
 230:main.c        ****     ADC_StartConvert();
  79              		.loc 1 230 0
  80 001a FFF7FEFF 		bl	ADC_Start
  81              	.LVL5:
 231:main.c        ****     
  82              		.loc 1 231 0
  83 001e FFF7FEFF 		bl	ADC_StartConvert
  84              	.LVL6:
 234:main.c        ****     
  85              		.loc 1 234 0
  86 0022 FFF7FEFF 		bl	RefBuffer_Start
  87              	.LVL7:
 237:main.c        ****     
  88              		.loc 1 237 0
  89 0026 FFF7FEFF 		bl	PVref_Start
  90              	.LVL8:
 240:main.c        ****     
  91              		.loc 1 240 0
  92 002a FFF7FEFF 		bl	PVref_Enable
  93              	.LVL9:
 243:main.c        ****     
  94              		.loc 1 243 0
  95 002e FFF7FEFF 		bl	PIRAmplifierStage1_Start
  96              	.LVL10:
 246:main.c        ****     
  97              		.loc 1 246 0
  98 0032 FFF7FEFF 		bl	PIRAmplifierStage2_Start
  99              	.LVL11:
 249:main.c        ****     
 100              		.loc 1 249 0
 101 0036 FFF7FEFF 		bl	Opamp_1_Start
 102              	.LVL12:
 252:main.c        ****     
 103              		.loc 1 252 0
 104 003a FFF7FEFF 		bl	CSD_Start
 105              	.LVL13:
 255:main.c        **** 
 106              		.loc 1 255 0
 107              		@ sp needed
 108 003e 08BD     		pop	{r3, pc}
 109              	.L6:
 110              		.align	2
 111              	.L5:
 112 0040 00000000 		.word	.LANCHOR0
 113 0044 00000000 		.word	TIMEBASE_ISR
 114              		.cfi_endproc
 115              	.LFE36:
 116              		.size	InitResources, .-InitResources
ARM GAS  C:\Users\raymond\AppData\Local\Temp\ccaxBqgY.s 			page 8


 117              		.global	__aeabi_idiv
 118              		.global	__aeabi_i2f
 119              		.global	__aeabi_fdiv
 120              		.global	__aeabi_f2uiz
 121              		.section	.rodata.cst2,"aM",%progbits,2
 122              		.align	1
 123              	.LC4:
 124 0000 E803     		.short	1000
 125              		.section	.text.main,"ax",%progbits
 126              		.align	2
 127              		.global	main
 128              		.code	16
 129              		.thumb_func
 130              		.type	main, %function
 131              	main:
 132              	.LFB35:
  31:main.c        **** 	int16 sensorRawValue = 0; /* Sensor raw value */
 133              		.loc 1 31 0
 134              		.cfi_startproc
 135 0000 F0B5     		push	{r4, r5, r6, r7, lr}
 136              		.cfi_def_cfa_offset 20
 137              		.cfi_offset 4, -20
 138              		.cfi_offset 5, -16
 139              		.cfi_offset 6, -12
 140              		.cfi_offset 7, -8
 141              		.cfi_offset 14, -4
 142 0002 5F46     		mov	r7, fp
 143 0004 5646     		mov	r6, r10
 144 0006 4D46     		mov	r5, r9
 145 0008 E0B4     		push	{r5, r6, r7}
 146              		.cfi_def_cfa_offset 32
 147              		.cfi_offset 9, -32
 148              		.cfi_offset 10, -28
 149              		.cfi_offset 11, -24
 150 000a 82B0     		sub	sp, sp, #8
 151              		.cfi_def_cfa_offset 40
 152              	.LVL14:
  55:main.c        ****     InitResources();    /* Initialize all the hardware resources */
 153              		.loc 1 55 0
 154              	@ 55 "main.c" 1
 155 000c 62B6     		CPSIE   i
 156              	@ 0 "" 2
  56:main.c        ****     
 157              		.loc 1 56 0
 158              		.code	16
 159 000e FFF7FEFF 		bl	InitResources
 160              	.LVL15:
  47:main.c        ****     int16 thermistorResistance, temperature;     /* Variables to hold calculated resistance and tem
 161              		.loc 1 47 0
 162 0012 0025     		mov	r5, #0
  46:main.c        ****     int16 filterOutputVth=0;
 163              		.loc 1 46 0
 164 0014 0024     		mov	r4, #0
  39:main.c        **** 	
 165              		.loc 1 39 0
 166 0016 0023     		mov	r3, #0
 167 0018 9A46     		mov	r10, r3
ARM GAS  C:\Users\raymond\AppData\Local\Temp\ccaxBqgY.s 			page 9


  35:main.c        ****     uint8 interruptState = 0; /* Variable to store the status returned by CyEnterCriticalSection() 
 168              		.loc 1 35 0
 169 001a 0327     		mov	r7, #3
  34:main.c        ****     uint8 prevDetectionDistance = THREE_FEET; // Variable that stores previous detection distance
 170              		.loc 1 34 0
 171 001c 7C4B     		ldr	r3, .L29
 172 001e 9B46     		mov	fp, r3
  33:main.c        **** 	int16 lowThreshold = PIR_WINDOW_LOW_3FT;
 173              		.loc 1 33 0
 174 0020 9623     		mov	r3, #150
 175 0022 DB00     		lsl	r3, r3, #3
 176 0024 9946     		mov	r9, r3
 177              	.LVL16:
 178              	.L8:
  62:main.c        ****         {
 179              		.loc 1 62 0
 180 0026 7B4B     		ldr	r3, .L29+4
 181 0028 1E78     		ldrb	r6, [r3]
 182 002a BE42     		cmp	r6, r7
 183 002c 2CD0     		beq	.L9
 184              	.LVL17:
  65:main.c        ****             {
 185              		.loc 1 65 0
 186 002e 0A2E     		cmp	r6, #10
 187 0030 0DD0     		beq	.L11
 188 0032 142E     		cmp	r6, #20
 189 0034 15D0     		beq	.L12
 190 0036 032E     		cmp	r6, #3
 191 0038 1DD1     		bne	.L28
  70:main.c        ****                     highThreshold = PIR_WINDOW_HIGH_3FT;
 192              		.loc 1 70 0
 193 003a 0020     		mov	r0, #0
 194 003c FFF7FEFF 		bl	PIRAmplifierStage2_SetGain
 195              	.LVL18:
  64:main.c        ****             switch (i2cBuffer.detectionDistance) /* Set the required detection distance */
 196              		.loc 1 64 0
 197 0040 371C     		mov	r7, r6
  72:main.c        ****                     break;
 198              		.loc 1 72 0
 199 0042 734B     		ldr	r3, .L29
 200 0044 9B46     		mov	fp, r3
  71:main.c        ****                     lowThreshold = PIR_WINDOW_LOW_3FT;
 201              		.loc 1 71 0
 202 0046 9623     		mov	r3, #150
 203 0048 DB00     		lsl	r3, r3, #3
 204 004a 9946     		mov	r9, r3
  73:main.c        ****                 case TEN_FEET:
 205              		.loc 1 73 0
 206 004c 1CE0     		b	.L9
 207              	.LVL19:
 208              	.L11:
  77:main.c        ****                     highThreshold = PIR_WINDOW_HIGH_10FT;
 209              		.loc 1 77 0
 210 004e 0220     		mov	r0, #2
 211 0050 FFF7FEFF 		bl	PIRAmplifierStage2_SetGain
 212              	.LVL20:
  64:main.c        ****             switch (i2cBuffer.detectionDistance) /* Set the required detection distance */
ARM GAS  C:\Users\raymond\AppData\Local\Temp\ccaxBqgY.s 			page 10


 213              		.loc 1 64 0
 214 0054 371C     		mov	r7, r6
  79:main.c        ****                     break;
 215              		.loc 1 79 0
 216 0056 704B     		ldr	r3, .L29+8
 217 0058 9B46     		mov	fp, r3
  78:main.c        ****                     lowThreshold = PIR_WINDOW_LOW_10FT;
 218              		.loc 1 78 0
 219 005a 9623     		mov	r3, #150
 220 005c 9B00     		lsl	r3, r3, #2
 221 005e 9946     		mov	r9, r3
  80:main.c        ****                 case TWENTY_FEET:
 222              		.loc 1 80 0
 223 0060 12E0     		b	.L9
 224              	.LVL21:
 225              	.L12:
  84:main.c        ****                     highThreshold = PIR_WINDOW_HIGH_20FT;
 226              		.loc 1 84 0
 227 0062 0A20     		mov	r0, #10
 228 0064 FFF7FEFF 		bl	PIRAmplifierStage2_SetGain
 229              	.LVL22:
  64:main.c        ****             switch (i2cBuffer.detectionDistance) /* Set the required detection distance */
 230              		.loc 1 64 0
 231 0068 371C     		mov	r7, r6
  86:main.c        ****                     break;
 232              		.loc 1 86 0
 233 006a 694B     		ldr	r3, .L29
 234 006c 9B46     		mov	fp, r3
  85:main.c        ****                     lowThreshold = PIR_WINDOW_LOW_20FT;
 235              		.loc 1 85 0
 236 006e 9623     		mov	r3, #150
 237 0070 DB00     		lsl	r3, r3, #3
 238 0072 9946     		mov	r9, r3
  87:main.c        ****                 default:
 239              		.loc 1 87 0
 240 0074 08E0     		b	.L9
 241              	.LVL23:
 242              	.L28:
  91:main.c        ****                     highThreshold = PIR_WINDOW_HIGH_3FT;
 243              		.loc 1 91 0
 244 0076 0020     		mov	r0, #0
 245 0078 FFF7FEFF 		bl	PIRAmplifierStage2_SetGain
 246              	.LVL24:
  64:main.c        ****             switch (i2cBuffer.detectionDistance) /* Set the required detection distance */
 247              		.loc 1 64 0
 248 007c 371C     		mov	r7, r6
  93:main.c        ****                     break;
 249              		.loc 1 93 0
 250 007e 644B     		ldr	r3, .L29
 251 0080 9B46     		mov	fp, r3
  92:main.c        ****                     lowThreshold = PIR_WINDOW_LOW_3FT;
 252              		.loc 1 92 0
 253 0082 9623     		mov	r3, #150
 254 0084 DB00     		lsl	r3, r3, #3
 255 0086 9946     		mov	r9, r3
 256              	.LVL25:
 257              	.L9:
ARM GAS  C:\Users\raymond\AppData\Local\Temp\ccaxBqgY.s 			page 11


  99:main.c        ****         {
 258              		.loc 1 99 0
 259 0088 0120     		mov	r0, #1
 260 008a FFF7FEFF 		bl	ADC_IsEndConversion
 261              	.LVL26:
 262 008e 0028     		cmp	r0, #0
 263 0090 2CD0     		beq	.L14
 101:main.c        ****             if((sensorRawValue > highThreshold) ||  /* Check if motion is detected */
 264              		.loc 1 101 0
 265 0092 0020     		mov	r0, #0
 266 0094 FFF7FEFF 		bl	ADC_GetResult16
 267              	.LVL27:
 268 0098 061C     		mov	r6, r0
 269              	.LVL28:
 102:main.c        ****                (sensorRawValue < lowThreshold)){
 270              		.loc 1 102 0
 271 009a 8145     		cmp	r9, r0
 272 009c 03DB     		blt	.L15
 102:main.c        ****                (sensorRawValue < lowThreshold)){
 273              		.loc 1 102 0 is_stmt 0 discriminator 1
 274 009e 5A46     		mov	r2, fp
 275 00a0 12B2     		sxth	r2, r2
 276 00a2 9042     		cmp	r0, r2
 277 00a4 22DA     		bge	.L14
 278              	.L15:
 104:main.c        **** 				Timebase5s_WriteCounter(Timebase5s_TC_PERIOD_VALUE); /* Reload the counter */
 279              		.loc 1 104 0 is_stmt 1
 280 00a6 FFF7FEFF 		bl	Timebase5s_Stop
 281              	.LVL29:
 105:main.c        ****                 Timebase5s_Start(); /* Start the 5s timer */
 282              		.loc 1 105 0
 283 00aa 5C48     		ldr	r0, .L29+12
 284 00ac FFF7FEFF 		bl	Timebase5s_WriteCounter
 285              	.LVL30:
 106:main.c        **** 				i2cBuffer.motionDetected = MOTION_DETECTED; /* Update the status of motion detection */
 286              		.loc 1 106 0
 287 00b0 FFF7FEFF 		bl	Timebase5s_Start
 288              	.LVL31:
 107:main.c        **** //                Pin_LED_Write(LED_ON); /* Turn ON the LED */
 289              		.loc 1 107 0
 290 00b4 0122     		mov	r2, #1
 291 00b6 574B     		ldr	r3, .L29+4
 292 00b8 DA71     		strb	r2, [r3, #7]
 110:main.c        ****         	    if(!(EzI2C_EzI2CGetActivity() & EzI2C_EZI2C_STATUS_BUSY)){
 293              		.loc 1 110 0
 294 00ba FFF7FEFF 		bl	CyEnterCriticalSection
 295              	.LVL32:
 296 00be 0190     		str	r0, [sp, #4]
 297              	.LVL33:
 111:main.c        ****                     /* Update I2C Buffer */
 298              		.loc 1 111 0
 299 00c0 FFF7FEFF 		bl	EzI2C_EzI2CGetActivity
 300              	.LVL34:
 301 00c4 8306     		lsl	r3, r0, #26
 302 00c6 0ED4     		bmi	.L16
 113:main.c        **** 			        i2cBuffer.highThreshold = highThreshold;
 303              		.loc 1 113 0
ARM GAS  C:\Users\raymond\AppData\Local\Temp\ccaxBqgY.s 			page 12


 304 00c8 524B     		ldr	r3, .L29+4
 305 00ca B6B2     		uxth	r6, r6
 306 00cc 5E70     		strb	r6, [r3, #1]
 307 00ce 360A     		lsr	r6, r6, #8
 308 00d0 9E70     		strb	r6, [r3, #2]
 114:main.c        **** 			        i2cBuffer.lowThreshold = lowThreshold;
 309              		.loc 1 114 0
 310 00d2 4A46     		mov	r2, r9
 311 00d4 DA70     		strb	r2, [r3, #3]
 312 00d6 4A46     		mov	r2, r9
 313 00d8 120A     		lsr	r2, r2, #8
 314 00da 1A71     		strb	r2, [r3, #4]
 115:main.c        ****                 }
 315              		.loc 1 115 0
 316 00dc 5A46     		mov	r2, fp
 317 00de 5A71     		strb	r2, [r3, #5]
 318 00e0 5A46     		mov	r2, fp
 319 00e2 120A     		lsr	r2, r2, #8
 320 00e4 9A71     		strb	r2, [r3, #6]
 321              	.L16:
 117:main.c        ****             }
 322              		.loc 1 117 0
 323 00e6 0198     		ldr	r0, [sp, #4]
 324 00e8 FFF7FEFF 		bl	CyExitCriticalSection
 325              	.LVL35:
 326              	.L14:
 124:main.c        **** 		{			
 327              		.loc 1 124 0
 328 00ec 0120     		mov	r0, #1
 329 00ee FFF7FEFF 		bl	ADC_IsEndConversion
 330              	.LVL36:
 331 00f2 0028     		cmp	r0, #0
 332 00f4 28D0     		beq	.L17
 126:main.c        **** 			filterInput = adcResult; /* Low pass filter the ADC result */
 333              		.loc 1 126 0
 334 00f6 0320     		mov	r0, #3
 335 00f8 FFF7FEFF 		bl	ADC_GetResult16
 336              	.LVL37:
 128:main.c        **** 			alsCurrent = (filterOutput * ALS_CURRENT_SCALE_FACTOR_NUMERATOR)/ALS_CURRENT_SCALE_FACTOR_DENOMI
 337              		.loc 1 128 0
 338 00fc 5346     		mov	r3, r10
 339 00fe DB00     		lsl	r3, r3, #3
 340 0100 5344     		add	r3, r3, r10
 341 0102 C018     		add	r0, r0, r3
 342              	.LVL38:
 343 0104 0A21     		mov	r1, #10
 344 0106 FFF7FEFF 		bl	__aeabi_idiv
 345              	.LVL39:
 346 010a 8246     		mov	r10, r0
 347              	.LVL40:
 129:main.c        **** 			/* If the calculated current is negative, limit it to zero */
 348              		.loc 1 129 0
 349 010c 4448     		ldr	r0, .L29+16
 350              	.LVL41:
 351 010e 5346     		mov	r3, r10
 352 0110 5843     		mul	r0, r3
 353 0112 4449     		ldr	r1, .L29+20
ARM GAS  C:\Users\raymond\AppData\Local\Temp\ccaxBqgY.s 			page 13


 354 0114 FFF7FEFF 		bl	__aeabi_idiv
 355              	.LVL42:
 131:main.c        **** 			{
 356              		.loc 1 131 0
 357 0118 83B2     		uxth	r3, r0
 358 011a 0204     		lsl	r2, r0, #16
 359 011c 00D5     		bpl	.L18
 133:main.c        **** 			}
 360              		.loc 1 133 0
 361 011e 0023     		mov	r3, #0
 362              	.L18:
 363              	.LVL43:
 135:main.c        ****             
 364              		.loc 1 135 0
 365 0120 1BB2     		sxth	r3, r3
 366 0122 4148     		ldr	r0, .L29+24
 367 0124 5843     		mul	r0, r3
 368 0126 FA21     		mov	r1, #250
 369 0128 8900     		lsl	r1, r1, #2
 370 012a FFF7FEFF 		bl	__aeabi_idiv
 371              	.LVL44:
 372 012e 86B2     		uxth	r6, r0
 373              	.LVL45:
 137:main.c        ****         	if(!(EzI2C_EzI2CGetActivity() & EzI2C_EZI2C_STATUS_BUSY)){
 374              		.loc 1 137 0
 375 0130 FFF7FEFF 		bl	CyEnterCriticalSection
 376              	.LVL46:
 377 0134 0190     		str	r0, [sp, #4]
 378              	.LVL47:
 138:main.c        ****                 /* Update I2C Buffer */
 379              		.loc 1 138 0
 380 0136 FFF7FEFF 		bl	EzI2C_EzI2CGetActivity
 381              	.LVL48:
 382 013a 8306     		lsl	r3, r0, #26
 383 013c 01D4     		bmi	.L19
 141:main.c        ****             }
 384              		.loc 1 141 0
 385 013e 354B     		ldr	r3, .L29+4
 386 0140 5E81     		strh	r6, [r3, #10]
 387              	.L19:
 143:main.c        ****         }
 388              		.loc 1 143 0
 389 0142 0198     		ldr	r0, [sp, #4]
 390 0144 FFF7FEFF 		bl	CyExitCriticalSection
 391              	.LVL49:
 392              	.L17:
 151:main.c        ****         {
 393              		.loc 1 151 0
 394 0148 0120     		mov	r0, #1
 395 014a FFF7FEFF 		bl	ADC_IsEndConversion
 396              	.LVL50:
 397 014e 0028     		cmp	r0, #0
 398 0150 26D0     		beq	.L20
 153:main.c        ****             adcResultVTH = ADC_GetResult16(ADC_CHANNEL_VTH);
 399              		.loc 1 153 0
 400 0152 0120     		mov	r0, #1
 401 0154 FFF7FEFF 		bl	ADC_GetResult16
ARM GAS  C:\Users\raymond\AppData\Local\Temp\ccaxBqgY.s 			page 14


 402              	.LVL51:
 403 0158 061C     		mov	r6, r0
 404              	.LVL52:
 154:main.c        ****             /* Low pass filter the measured ADC counts of Vref */            
 405              		.loc 1 154 0
 406 015a 0220     		mov	r0, #2
 407 015c FFF7FEFF 		bl	ADC_GetResult16
 408              	.LVL53:
 156:main.c        ****             /* Low pass filter the measured ADC counts of Vth */         
 409              		.loc 1 156 0
 410 0160 24B2     		sxth	r4, r4
 411 0162 6301     		lsl	r3, r4, #5
 412 0164 1C1B     		sub	r4, r3, r4
 413              	.LVL54:
 414 0166 3419     		add	r4, r6, r4
 415 0168 6409     		lsr	r4, r4, #5
 416 016a A4B2     		uxth	r4, r4
 417              	.LVL55:
 158:main.c        ****             /* Calculate thermistor resistance */
 418              		.loc 1 158 0
 419 016c 2DB2     		sxth	r5, r5
 420 016e 6B01     		lsl	r3, r5, #5
 421 0170 5D1B     		sub	r5, r3, r5
 422              	.LVL56:
 423 0172 4519     		add	r5, r0, r5
 424 0174 6D09     		lsr	r5, r5, #5
 425 0176 ADB2     		uxth	r5, r5
 426              	.LVL57:
 160:main.c        ****             /* Calculate temperature in degree Celsius using the Component API */
 427              		.loc 1 160 0
 428 0178 20B2     		sxth	r0, r4
 429              	.LVL58:
 430 017a 29B2     		sxth	r1, r5
 431 017c FFF7FEFF 		bl	Thermistor_GetResistance
 432              	.LVL59:
 162:main.c        ****             
 433              		.loc 1 162 0
 434 0180 00B2     		sxth	r0, r0
 435 0182 FFF7FEFF 		bl	Thermistor_GetTemperature
 436              	.LVL60:
 437 0186 061C     		mov	r6, r0
 438              	.LVL61:
 164:main.c        ****         	if(!(EzI2C_EzI2CGetActivity() & EzI2C_EZI2C_STATUS_BUSY)){
 439              		.loc 1 164 0
 440 0188 FFF7FEFF 		bl	CyEnterCriticalSection
 441              	.LVL62:
 442 018c 0190     		str	r0, [sp, #4]
 443              	.LVL63:
 165:main.c        ****                 /* Update I2C Buffer */
 444              		.loc 1 165 0
 445 018e FFF7FEFF 		bl	EzI2C_EzI2CGetActivity
 446              	.LVL64:
 447 0192 8306     		lsl	r3, r0, #26
 448 0194 01D4     		bmi	.L21
 169:main.c        ****             }
 449              		.loc 1 169 0
 450 0196 1F4B     		ldr	r3, .L29+4
ARM GAS  C:\Users\raymond\AppData\Local\Temp\ccaxBqgY.s 			page 15


 451 0198 1E81     		strh	r6, [r3, #8]
 452              	.L21:
 171:main.c        ****         }
 453              		.loc 1 171 0
 454 019a 0198     		ldr	r0, [sp, #4]
 455 019c FFF7FEFF 		bl	CyExitCriticalSection
 456              	.LVL65:
 457              	.L20:
 175:main.c        ****         {       
 458              		.loc 1 175 0
 459 01a0 FFF7FEFF 		bl	CSD_IsBusy
 460              	.LVL66:
 461 01a4 0028     		cmp	r0, #0
 462 01a6 00D0     		beq	.LCB445
 463 01a8 3DE7     		b	.L8	@long jump
 464              	.LCB445:
 178:main.c        **** 
 465              		.loc 1 178 0
 466 01aa FFF7FEFF 		bl	CyEnterCriticalSection
 467              	.LVL67:
 468 01ae 061C     		mov	r6, r0
 469              	.LVL68:
 180:main.c        ****             {
 470              		.loc 1 180 0
 471 01b0 FFF7FEFF 		bl	EzI2C_EzI2CGetActivity
 472              	.LVL69:
 473 01b4 8306     		lsl	r3, r0, #26
 474 01b6 24D4     		bmi	.L23
 475              	.LVL70:
 476              	.LBB6:
 477              	.LBB7:
 269:main.c        **** 
 270:main.c        **** __inline uint16 CalculateCapacitance(uint16 rawCounts, uint16 refsensorCounts)
 271:main.c        **** {
 272:main.c        ****     return (uint16)((float)(rawCounts - OFFSETCOUNT) * (CREF - COFFSET) / (float)(refsensorCounts -
 478              		.loc 1 272 0
 479 01b8 1C48     		ldr	r0, .L29+28
 480 01ba FFF7FEFF 		bl	__aeabi_i2f
 481              	.LVL71:
 482 01be 011C     		add	r1, r0, #0
 483 01c0 1B48     		ldr	r0, .L29+32
 484 01c2 FFF7FEFF 		bl	__aeabi_fdiv
 485              	.LVL72:
 486 01c6 FFF7FEFF 		bl	__aeabi_f2uiz
 487              	.LVL73:
 488              	.LBE7:
 489              	.LBE6:
 490              	.LBB8:
 491              	.LBB9:
 273:main.c        **** }
 274:main.c        **** 
 275:main.c        **** __inline uint16 CalculateHumidity(uint16 capacitance)
 276:main.c        **** {
 277:main.c        ****     int16 humidity;
 278:main.c        ****     int16 delta;
 279:main.c        ****     
 280:main.c        ****     /* Find capacitance difference from nominal capacitance at 55% RH */
ARM GAS  C:\Users\raymond\AppData\Local\Temp\ccaxBqgY.s 			page 16


 281:main.c        ****     delta = capacitance - CAPACITANCE_AT_55_RH;
 492              		.loc 1 281 0
 493 01ca 1A4B     		ldr	r3, .L29+36
 494 01cc 9C46     		mov	ip, r3
 495 01ce 6044     		add	r0, r0, ip
 496              	.LVL74:
 282:main.c        ****     
 283:main.c        ****     /* Calculate humidity from capacitance difference and sensor sensitivity */
 284:main.c        ****     humidity = ((delta * SENSITIVITY_DENOMINATOR) / SENSITIVITY_NUMERATOR) + NOMINAL_HUMIDITY;
 497              		.loc 1 284 0
 498 01d0 00B2     		sxth	r0, r0
 499 01d2 6423     		mov	r3, #100
 500 01d4 5843     		mul	r0, r3
 501              	.LVL75:
 502 01d6 1F21     		mov	r1, #31
 503 01d8 FFF7FEFF 		bl	__aeabi_idiv
 504              	.LVL76:
 505 01dc 164B     		ldr	r3, .L29+40
 506 01de 9C46     		mov	ip, r3
 507 01e0 6044     		add	r0, r0, ip
 508              	.LVL77:
 285:main.c        ****     
 286:main.c        ****     /* If humidity is less than zero, limit it to 0; If humidity is greater than 1000 (100%), limit
 287:main.c        ****     humidity = (humidity < HUMIDITY_0_PERCENT) ? HUMIDITY_0_PERCENT : (humidity > HUMIDITY_100_PERC
 509              		.loc 1 287 0
 510 01e2 83B2     		uxth	r3, r0
 511 01e4 0204     		lsl	r2, r0, #16
 512 01e6 09D4     		bmi	.L27
 513 01e8 1A1C     		add	r2, r3, #0
 514 01ea 1BB2     		sxth	r3, r3
 515 01ec FA21     		mov	r1, #250
 516 01ee 8900     		lsl	r1, r1, #2
 517 01f0 8B42     		cmp	r3, r1
 518 01f2 01DD     		ble	.L25
 519 01f4 114B     		ldr	r3, .L29+44
 520 01f6 1A88     		ldrh	r2, [r3]
 521              	.L25:
 522 01f8 93B2     		uxth	r3, r2
 523 01fa 00E0     		b	.L24
 524              	.L27:
 525 01fc 0023     		mov	r3, #0
 526              	.L24:
 527              	.LVL78:
 528              	.LBE9:
 529              	.LBE8:
 188:main.c        ****             }
 530              		.loc 1 188 0
 531 01fe 054A     		ldr	r2, .L29+4
 532 0200 9381     		strh	r3, [r2, #12]
 533              	.LVL79:
 534              	.L23:
 190:main.c        ****             /* Scan sensors */
 535              		.loc 1 190 0
 536 0202 301C     		mov	r0, r6
 537 0204 FFF7FEFF 		bl	CyExitCriticalSection
 538              	.LVL80:
 192:main.c        ****         }
ARM GAS  C:\Users\raymond\AppData\Local\Temp\ccaxBqgY.s 			page 17


 539              		.loc 1 192 0
 540 0208 FFF7FEFF 		bl	CSD_ScanAllWidgets
 541              	.LVL81:
 542 020c 0BE7     		b	.L8
 543              	.L30:
 544 020e C046     		.align	2
 545              	.L29:
 546 0210 50FB0000 		.word	64336
 547 0214 00000000 		.word	.LANCHOR0
 548 0218 A8FD0000 		.word	64936
 549 021c 87130000 		.word	4999
 550 0220 F797FFFF 		.word	-26633
 551 0224 10270000 		.word	10000
 552 0228 050D0000 		.word	3333
 553 022c 00FAFFFF 		.word	-1536
 554 0230 00E026CA 		.word	-903421952
 555 0234 F8F8FFFF 		.word	-1800
 556 0238 26020000 		.word	550
 557 023c 00000000 		.word	.LC4
 558              		.cfi_endproc
 559              	.LFE35:
 560              		.size	main, .-main
 561              		.global	__aeabi_fmul
 562              		.section	.text.CalculateCapacitance,"ax",%progbits
 563              		.align	2
 564              		.global	CalculateCapacitance
 565              		.code	16
 566              		.thumb_func
 567              		.type	CalculateCapacitance, %function
 568              	CalculateCapacitance:
 569              	.LFB38:
 271:main.c        ****     return (uint16)((float)(rawCounts - OFFSETCOUNT) * (CREF - COFFSET) / (float)(refsensorCounts -
 570              		.loc 1 271 0
 571              		.cfi_startproc
 572              	.LVL82:
 573 0000 38B5     		push	{r3, r4, r5, lr}
 574              		.cfi_def_cfa_offset 16
 575              		.cfi_offset 3, -16
 576              		.cfi_offset 4, -12
 577              		.cfi_offset 5, -8
 578              		.cfi_offset 14, -4
 579 0002 0C1C     		mov	r4, r1
 272:main.c        **** }
 580              		.loc 1 272 0
 581 0004 0A4B     		ldr	r3, .L32
 582 0006 9C46     		mov	ip, r3
 583 0008 6044     		add	r0, r0, ip
 584              	.LVL83:
 585 000a FFF7FEFF 		bl	__aeabi_i2f
 586              	.LVL84:
 587 000e 0949     		ldr	r1, .L32+4
 588 0010 FFF7FEFF 		bl	__aeabi_fmul
 589              	.LVL85:
 590 0014 051C     		add	r5, r0, #0
 591 0016 064B     		ldr	r3, .L32
 592 0018 E018     		add	r0, r4, r3
 593 001a FFF7FEFF 		bl	__aeabi_i2f
ARM GAS  C:\Users\raymond\AppData\Local\Temp\ccaxBqgY.s 			page 18


 594              	.LVL86:
 595 001e 011C     		add	r1, r0, #0
 596 0020 281C     		add	r0, r5, #0
 597 0022 FFF7FEFF 		bl	__aeabi_fdiv
 598              	.LVL87:
 599 0026 FFF7FEFF 		bl	__aeabi_f2uiz
 600              	.LVL88:
 601 002a 80B2     		uxth	r0, r0
 273:main.c        **** 
 602              		.loc 1 273 0
 603              		@ sp needed
 604 002c 38BD     		pop	{r3, r4, r5, pc}
 605              	.L33:
 606 002e C046     		.align	2
 607              	.L32:
 608 0030 00FAFFFF 		.word	-1536
 609 0034 0080DE44 		.word	1155432448
 610              		.cfi_endproc
 611              	.LFE38:
 612              		.size	CalculateCapacitance, .-CalculateCapacitance
 613              		.section	.rodata.cst2
 614              		.align	1
 615              	.LC5:
 616 0002 E803     		.short	1000
 617              		.section	.text.CalculateHumidity,"ax",%progbits
 618              		.align	2
 619              		.global	CalculateHumidity
 620              		.code	16
 621              		.thumb_func
 622              		.type	CalculateHumidity, %function
 623              	CalculateHumidity:
 624              	.LFB39:
 276:main.c        ****     int16 humidity;
 625              		.loc 1 276 0
 626              		.cfi_startproc
 627              	.LVL89:
 628 0000 08B5     		push	{r3, lr}
 629              		.cfi_def_cfa_offset 8
 630              		.cfi_offset 3, -8
 631              		.cfi_offset 14, -4
 281:main.c        ****     
 632              		.loc 1 281 0
 633 0002 0E4B     		ldr	r3, .L38
 634 0004 9C46     		mov	ip, r3
 635 0006 6044     		add	r0, r0, ip
 636              	.LVL90:
 284:main.c        ****     
 637              		.loc 1 284 0
 638 0008 00B2     		sxth	r0, r0
 639 000a 6423     		mov	r3, #100
 640 000c 5843     		mul	r0, r3
 641              	.LVL91:
 642 000e 1F21     		mov	r1, #31
 643 0010 FFF7FEFF 		bl	__aeabi_idiv
 644              	.LVL92:
 645 0014 0A4B     		ldr	r3, .L38+4
 646 0016 9C46     		mov	ip, r3
ARM GAS  C:\Users\raymond\AppData\Local\Temp\ccaxBqgY.s 			page 19


 647 0018 6044     		add	r0, r0, ip
 648              	.LVL93:
 649              		.loc 1 287 0
 650 001a 83B2     		uxth	r3, r0
 651 001c 0204     		lsl	r2, r0, #16
 652 001e 09D4     		bmi	.L37
 653              		.loc 1 287 0 is_stmt 0 discriminator 1
 654 0020 181C     		add	r0, r3, #0
 655              	.LVL94:
 656 0022 1BB2     		sxth	r3, r3
 657              	.LVL95:
 658 0024 FA22     		mov	r2, #250
 659 0026 9200     		lsl	r2, r2, #2
 660 0028 9342     		cmp	r3, r2
 661 002a 01DD     		ble	.L36
 662 002c 054B     		ldr	r3, .L38+8
 663 002e 1888     		ldrh	r0, [r3]
 664              	.L36:
 665 0030 80B2     		uxth	r0, r0
 666 0032 00E0     		b	.L35
 667              	.LVL96:
 668              	.L37:
 669              		.loc 1 287 0
 670 0034 0020     		mov	r0, #0
 671              	.LVL97:
 672              	.L35:
 288:main.c        **** 
 289:main.c        ****     /* Return Humidity value */
 290:main.c        ****     return humidity;
 673              		.loc 1 290 0 is_stmt 1 discriminator 4
 674 0036 80B2     		uxth	r0, r0
 291:main.c        **** }
 675              		.loc 1 291 0 discriminator 4
 676              		@ sp needed
 677 0038 08BD     		pop	{r3, pc}
 678              	.L39:
 679 003a C046     		.align	2
 680              	.L38:
 681 003c F8F8FFFF 		.word	-1800
 682 0040 26020000 		.word	550
 683 0044 02000000 		.word	.LC5
 684              		.cfi_endproc
 685              	.LFE39:
 686              		.size	CalculateHumidity, .-CalculateHumidity
 687              		.global	i2cBuffer
 688              		.data
 689              		.align	2
 690              		.set	.LANCHOR0,. + 0
 691              		.type	i2cBuffer, %object
 692              		.size	i2cBuffer, 14
 693              	i2cBuffer:
 694 0000 03       		.byte	3
 695 0001 0000     		.2byte	0
 696 0003 B004     		.2byte	1200
 697 0005 50FB     		.2byte	-1200
 698 0007 00       		.byte	0
 699 0008 0000     		.short	0
ARM GAS  C:\Users\raymond\AppData\Local\Temp\ccaxBqgY.s 			page 20


 700 000a 0000     		.short	0
 701 000c 0000     		.short	0
 702 000e 0000     		.text
 703              	.Letext0:
 704              		.file 2 "Generated_Source\\PSoC4/cytypes.h"
 705              		.file 3 "./my_macros.h"
 706              		.file 4 "Generated_Source\\PSoC4/Timebase5s.h"
 707              		.file 5 "Generated_Source\\PSoC4/EzI2C.h"
 708              		.file 6 "Generated_Source\\PSoC4/isr_Timebase5s.h"
 709              		.file 7 "Generated_Source\\PSoC4/EzI2C_EZI2C.h"
 710              		.file 8 "Generated_Source\\PSoC4/ADC.h"
 711              		.file 9 "Generated_Source\\PSoC4/RefBuffer.h"
 712              		.file 10 "Generated_Source\\PSoC4/PVref.h"
 713              		.file 11 "Generated_Source\\PSoC4/PIRAmplifierStage1.h"
 714              		.file 12 "Generated_Source\\PSoC4/PIRAmplifierStage2.h"
 715              		.file 13 "Generated_Source\\PSoC4/Opamp_1.h"
 716              		.file 14 "Generated_Source\\PSoC4/CSD_Control.h"
 717              		.file 15 "Generated_Source\\PSoC4/CyLib.h"
 718              		.file 16 "Generated_Source\\PSoC4/Thermistor.h"
 719              		.file 17 "Generated_Source\\PSoC4/CSD_Sensing.h"