ARM GAS  C:\Users\raymond\AppData\Local\Temp\ccqa4qSr.s 			page 1


   1              		.cpu cortex-m0plus
   2              		.fpu softvfp
   3              		.eabi_attribute 20, 1
   4              		.eabi_attribute 21, 1
   5              		.eabi_attribute 23, 3
   6              		.eabi_attribute 24, 1
   7              		.eabi_attribute 25, 1
   8              		.eabi_attribute 26, 1
   9              		.eabi_attribute 30, 1
  10              		.eabi_attribute 34, 0
  11              		.eabi_attribute 18, 4
  12              		.code	16
  13              		.file	"PIRAmplifierStage2.c"
  14              		.text
  15              	.Ltext0:
  16              		.cfi_sections	.debug_frame
  17              		.section	.text.PIRAmplifierStage2_Enable,"ax",%progbits
  18              		.align	2
  19              		.global	PIRAmplifierStage2_Enable
  20              		.code	16
  21              		.thumb_func
  22              		.type	PIRAmplifierStage2_Enable, %function
  23              	PIRAmplifierStage2_Enable:
  24              	.LFB1:
  25              		.file 1 "Generated_Source\\PSoC4\\PIRAmplifierStage2.c"
   1:Generated_Source\PSoC4/PIRAmplifierStage2.c **** /***************************************************************************//**
   2:Generated_Source\PSoC4/PIRAmplifierStage2.c **** * \file     PIRAmplifierStage2.c
   3:Generated_Source\PSoC4/PIRAmplifierStage2.c **** * \version  1.0
   4:Generated_Source\PSoC4/PIRAmplifierStage2.c **** *
   5:Generated_Source\PSoC4/PIRAmplifierStage2.c **** * \brief
   6:Generated_Source\PSoC4/PIRAmplifierStage2.c **** *  This file provides the source code to the API for the PGA_P4 Component
   7:Generated_Source\PSoC4/PIRAmplifierStage2.c **** *
   8:Generated_Source\PSoC4/PIRAmplifierStage2.c **** ********************************************************************************
   9:Generated_Source\PSoC4/PIRAmplifierStage2.c **** * \copyright
  10:Generated_Source\PSoC4/PIRAmplifierStage2.c **** * Copyright 2016, Cypress Semiconductor Corporation.  All rights reserved.
  11:Generated_Source\PSoC4/PIRAmplifierStage2.c **** * You may use this file only in accordance with the license, terms, conditions,
  12:Generated_Source\PSoC4/PIRAmplifierStage2.c **** * disclaimers, and limitations in the end user license agreement accompanying
  13:Generated_Source\PSoC4/PIRAmplifierStage2.c **** * the software package with which this file was provided.
  14:Generated_Source\PSoC4/PIRAmplifierStage2.c **** *******************************************************************************/
  15:Generated_Source\PSoC4/PIRAmplifierStage2.c **** 
  16:Generated_Source\PSoC4/PIRAmplifierStage2.c **** #include "PIRAmplifierStage2_PVT.h"
  17:Generated_Source\PSoC4/PIRAmplifierStage2.c **** 
  18:Generated_Source\PSoC4/PIRAmplifierStage2.c **** 
  19:Generated_Source\PSoC4/PIRAmplifierStage2.c **** uint8 PIRAmplifierStage2_initVar = 0u; /**< Describes the init state of the component */
  20:Generated_Source\PSoC4/PIRAmplifierStage2.c **** 
  21:Generated_Source\PSoC4/PIRAmplifierStage2.c **** uint32 PIRAmplifierStage2_internalGainPower = 0u; /**< Stores component Gain, Power and Enable valu
  22:Generated_Source\PSoC4/PIRAmplifierStage2.c **** 
  23:Generated_Source\PSoC4/PIRAmplifierStage2.c **** /***************************************************************************//**
  24:Generated_Source\PSoC4/PIRAmplifierStage2.c **** * Compensation table 
  25:Generated_Source\PSoC4/PIRAmplifierStage2.c **** *
  26:Generated_Source\PSoC4/PIRAmplifierStage2.c **** * There is a feedback compensation capacitor recomended setting (for certain 
  27:Generated_Source\PSoC4/PIRAmplifierStage2.c **** * gain and power setting) under the mask 0x0F000000u
  28:Generated_Source\PSoC4/PIRAmplifierStage2.c **** * or (PIRAmplifierStage2_C_FB_MASK)
  29:Generated_Source\PSoC4/PIRAmplifierStage2.c **** *
  30:Generated_Source\PSoC4/PIRAmplifierStage2.c **** * Also there is an OpAmp compensation recomended setting (for certain 
  31:Generated_Source\PSoC4/PIRAmplifierStage2.c **** * gain and power setting) under the mask 0x00000003u
  32:Generated_Source\PSoC4/PIRAmplifierStage2.c **** * or (PIRAmplifierStage2_GET_OA_COMP_TRIM)
ARM GAS  C:\Users\raymond\AppData\Local\Temp\ccqa4qSr.s 			page 2


  33:Generated_Source\PSoC4/PIRAmplifierStage2.c **** *
  34:Generated_Source\PSoC4/PIRAmplifierStage2.c **** * There is only 6 values for whole gain range because the recommended 
  35:Generated_Source\PSoC4/PIRAmplifierStage2.c **** * values are for each pair of adjacent gain values, e.g.:
  36:Generated_Source\PSoC4/PIRAmplifierStage2.c **** * the first (index = 0) value is for gain = 1 and 1.4,
  37:Generated_Source\PSoC4/PIRAmplifierStage2.c **** * the second (index = 1) value is for gain = 2 and 2.8,and so on,
  38:Generated_Source\PSoC4/PIRAmplifierStage2.c **** * and the sixth (index = 5) value is for gain = 32 only.
  39:Generated_Source\PSoC4/PIRAmplifierStage2.c **** *******************************************************************************/
  40:Generated_Source\PSoC4/PIRAmplifierStage2.c **** const uint32 PIRAmplifierStage2_compTab[PIRAmplifierStage2_COMP_TAB_HEIGHT][PIRAmplifierStage2_COMP
  41:Generated_Source\PSoC4/PIRAmplifierStage2.c **** {
  42:Generated_Source\PSoC4/PIRAmplifierStage2.c **** #if (PIRAmplifierStage2_CHECK_OUTPUT_MODE) /* Class AB */
  43:Generated_Source\PSoC4/PIRAmplifierStage2.c ****     {0x0F000002u, 0x0F000002u, 0x0F000002u},
  44:Generated_Source\PSoC4/PIRAmplifierStage2.c ****     {0x07000002u, 0x09000002u, 0x09000002u},
  45:Generated_Source\PSoC4/PIRAmplifierStage2.c ****     {0x04000002u, 0x04000002u, 0x04000002u},
  46:Generated_Source\PSoC4/PIRAmplifierStage2.c ****     {0x03000001u, 0x02000002u, 0x03000002u},
  47:Generated_Source\PSoC4/PIRAmplifierStage2.c ****     {0x01000001u, 0x00000002u, 0x00000002u},
  48:Generated_Source\PSoC4/PIRAmplifierStage2.c ****     {0x01000001u, 0x01000001u, 0x02000001u}
  49:Generated_Source\PSoC4/PIRAmplifierStage2.c **** #else /* Class A */
  50:Generated_Source\PSoC4/PIRAmplifierStage2.c ****     {0x0F000002u, 0x0F000002u, 0x0F000002u},
  51:Generated_Source\PSoC4/PIRAmplifierStage2.c ****     {0x08000002u, 0x09000002u, 0x09000002u},
  52:Generated_Source\PSoC4/PIRAmplifierStage2.c ****     {0x03000001u, 0x05000002u, 0x04000002u},
  53:Generated_Source\PSoC4/PIRAmplifierStage2.c ****     {0x00000001u, 0x02000002u, 0x03000002u},
  54:Generated_Source\PSoC4/PIRAmplifierStage2.c ****     {0x00000001u, 0x00000002u, 0x01000002u},
  55:Generated_Source\PSoC4/PIRAmplifierStage2.c ****     {0x00000001u, 0x00000001u, 0x00000001u}
  56:Generated_Source\PSoC4/PIRAmplifierStage2.c **** #endif /* PIRAmplifierStage2_OUTPUT_MODE */
  57:Generated_Source\PSoC4/PIRAmplifierStage2.c **** };
  58:Generated_Source\PSoC4/PIRAmplifierStage2.c **** 
  59:Generated_Source\PSoC4/PIRAmplifierStage2.c **** 
  60:Generated_Source\PSoC4/PIRAmplifierStage2.c **** /*******************************************************************************   
  61:Generated_Source\PSoC4/PIRAmplifierStage2.c **** * Function Name: PIRAmplifierStage2_Init
  62:Generated_Source\PSoC4/PIRAmplifierStage2.c **** ****************************************************************************//**
  63:Generated_Source\PSoC4/PIRAmplifierStage2.c **** *
  64:Generated_Source\PSoC4/PIRAmplifierStage2.c **** *  Initializes component's parameters to the values set by user in the 
  65:Generated_Source\PSoC4/PIRAmplifierStage2.c **** *  customizer of the component placed onto schematic. Usually it is called in 
  66:Generated_Source\PSoC4/PIRAmplifierStage2.c **** *  PIRAmplifierStage2_Start().
  67:Generated_Source\PSoC4/PIRAmplifierStage2.c **** *
  68:Generated_Source\PSoC4/PIRAmplifierStage2.c **** *******************************************************************************/
  69:Generated_Source\PSoC4/PIRAmplifierStage2.c **** void PIRAmplifierStage2_Init(void)
  70:Generated_Source\PSoC4/PIRAmplifierStage2.c **** {
  71:Generated_Source\PSoC4/PIRAmplifierStage2.c ****     /* Set default internal variable value */
  72:Generated_Source\PSoC4/PIRAmplifierStage2.c ****     PIRAmplifierStage2_internalGainPower = PIRAmplifierStage2_DEFAULT_GAIN_POWER;
  73:Generated_Source\PSoC4/PIRAmplifierStage2.c ****     
  74:Generated_Source\PSoC4/PIRAmplifierStage2.c ****     /* Set default register values */
  75:Generated_Source\PSoC4/PIRAmplifierStage2.c ****     PIRAmplifierStage2_CTB_CTRL_REG |= PIRAmplifierStage2_DEFAULT_CTB_CTRL;
  76:Generated_Source\PSoC4/PIRAmplifierStage2.c ****     PIRAmplifierStage2_OA_RES_CTRL_REG &= (uint32) ~PIRAmplifierStage2_DEFAULT_OA_RES_CTRL_MASK;
  77:Generated_Source\PSoC4/PIRAmplifierStage2.c ****     PIRAmplifierStage2_OA_RES_CTRL_REG |= PIRAmplifierStage2_DEFAULT_OA_RES_CTRL;
  78:Generated_Source\PSoC4/PIRAmplifierStage2.c ****     
  79:Generated_Source\PSoC4/PIRAmplifierStage2.c ****     #if (PIRAmplifierStage2_VREF_MODE == PIRAmplifierStage2_VREF_INTERNAL)
  80:Generated_Source\PSoC4/PIRAmplifierStage2.c ****         /* Configure resistor matrix bottom to the internal Vss */
  81:Generated_Source\PSoC4/PIRAmplifierStage2.c ****         PIRAmplifierStage2_OA_SW_REG |= PIRAmplifierStage2_RBOT_TO_VSSA;
  82:Generated_Source\PSoC4/PIRAmplifierStage2.c ****     #endif /* Vref Internal */
  83:Generated_Source\PSoC4/PIRAmplifierStage2.c ****     
  84:Generated_Source\PSoC4/PIRAmplifierStage2.c ****     /* Check if component has been enabled */
  85:Generated_Source\PSoC4/PIRAmplifierStage2.c ****     if((PIRAmplifierStage2_OA_RES_CTRL_REG & PIRAmplifierStage2_OA_PWR_MODE_MASK) != 0u)
  86:Generated_Source\PSoC4/PIRAmplifierStage2.c ****     {
  87:Generated_Source\PSoC4/PIRAmplifierStage2.c ****         /* Set the default power level */
  88:Generated_Source\PSoC4/PIRAmplifierStage2.c ****         PIRAmplifierStage2_Enable();
  89:Generated_Source\PSoC4/PIRAmplifierStage2.c ****     }
ARM GAS  C:\Users\raymond\AppData\Local\Temp\ccqa4qSr.s 			page 3


  90:Generated_Source\PSoC4/PIRAmplifierStage2.c ****     
  91:Generated_Source\PSoC4/PIRAmplifierStage2.c ****     /* Set default gain and correspondent Cfb and OA_trim values */
  92:Generated_Source\PSoC4/PIRAmplifierStage2.c ****     PIRAmplifierStage2_SetGain(PIRAmplifierStage2_GAIN);
  93:Generated_Source\PSoC4/PIRAmplifierStage2.c **** }
  94:Generated_Source\PSoC4/PIRAmplifierStage2.c **** 
  95:Generated_Source\PSoC4/PIRAmplifierStage2.c **** 
  96:Generated_Source\PSoC4/PIRAmplifierStage2.c **** /*******************************************************************************   
  97:Generated_Source\PSoC4/PIRAmplifierStage2.c **** * Function Name: PIRAmplifierStage2_Enable
  98:Generated_Source\PSoC4/PIRAmplifierStage2.c **** ****************************************************************************//**
  99:Generated_Source\PSoC4/PIRAmplifierStage2.c **** *
 100:Generated_Source\PSoC4/PIRAmplifierStage2.c **** *  Powers up amplifier (to default power level or restored after 
 101:Generated_Source\PSoC4/PIRAmplifierStage2.c **** *  previous PIRAmplifierStage2_Stop() call).
 102:Generated_Source\PSoC4/PIRAmplifierStage2.c **** *  Usually it is called in PIRAmplifierStage2_Start().
 103:Generated_Source\PSoC4/PIRAmplifierStage2.c **** *  
 104:Generated_Source\PSoC4/PIRAmplifierStage2.c **** *******************************************************************************/
 105:Generated_Source\PSoC4/PIRAmplifierStage2.c **** void PIRAmplifierStage2_Enable(void)
 106:Generated_Source\PSoC4/PIRAmplifierStage2.c **** {
  26              		.loc 1 106 0
  27              		.cfi_startproc
 107:Generated_Source\PSoC4/PIRAmplifierStage2.c ****     PIRAmplifierStage2_OA_RES_CTRL_REG |= PIRAmplifierStage2_GET_POWER;
  28              		.loc 1 107 0
  29 0000 0449     		ldr	r1, .L2
  30 0002 0868     		ldr	r0, [r1]
  31 0004 044B     		ldr	r3, .L2+4
  32 0006 1B68     		ldr	r3, [r3]
  33 0008 0322     		mov	r2, #3
  34 000a 1340     		and	r3, r2
  35 000c 0343     		orr	r3, r0
  36 000e 0B60     		str	r3, [r1]
 108:Generated_Source\PSoC4/PIRAmplifierStage2.c **** }
  37              		.loc 1 108 0
  38              		@ sp needed
  39 0010 7047     		bx	lr
  40              	.L3:
  41 0012 C046     		.align	2
  42              	.L2:
  43 0014 04003140 		.word	1076953092
  44 0018 00000000 		.word	.LANCHOR0
  45              		.cfi_endproc
  46              	.LFE1:
  47              		.size	PIRAmplifierStage2_Enable, .-PIRAmplifierStage2_Enable
  48              		.section	.text.PIRAmplifierStage2_Stop,"ax",%progbits
  49              		.align	2
  50              		.global	PIRAmplifierStage2_Stop
  51              		.code	16
  52              		.thumb_func
  53              		.type	PIRAmplifierStage2_Stop, %function
  54              	PIRAmplifierStage2_Stop:
  55              	.LFB3:
 109:Generated_Source\PSoC4/PIRAmplifierStage2.c **** 
 110:Generated_Source\PSoC4/PIRAmplifierStage2.c **** 
 111:Generated_Source\PSoC4/PIRAmplifierStage2.c **** /*******************************************************************************
 112:Generated_Source\PSoC4/PIRAmplifierStage2.c **** * Function Name: PIRAmplifierStage2_Start
 113:Generated_Source\PSoC4/PIRAmplifierStage2.c **** ****************************************************************************//**
 114:Generated_Source\PSoC4/PIRAmplifierStage2.c **** *
 115:Generated_Source\PSoC4/PIRAmplifierStage2.c **** *  Enables the amplifier operation (calls PIRAmplifierStage2_Enable).
 116:Generated_Source\PSoC4/PIRAmplifierStage2.c **** *  Also on the first call (after the system reset) initializes all the component
ARM GAS  C:\Users\raymond\AppData\Local\Temp\ccqa4qSr.s 			page 4


 117:Generated_Source\PSoC4/PIRAmplifierStage2.c **** *  related registers with default values (calls PIRAmplifierStage2_Init).
 118:Generated_Source\PSoC4/PIRAmplifierStage2.c **** *
 119:Generated_Source\PSoC4/PIRAmplifierStage2.c **** *  \globalvars
 120:Generated_Source\PSoC4/PIRAmplifierStage2.c **** *   The PIRAmplifierStage2_initVar variable is used to indicate initial
 121:Generated_Source\PSoC4/PIRAmplifierStage2.c **** *   configuration of this component. The variable is initialized to zero (0u)
 122:Generated_Source\PSoC4/PIRAmplifierStage2.c **** *   and set to one (1u) at the first time PIRAmplifierStage2_Start() is called.
 123:Generated_Source\PSoC4/PIRAmplifierStage2.c **** *   This allows to enable the component without re-initialization in all
 124:Generated_Source\PSoC4/PIRAmplifierStage2.c **** *   subsequent calls of the PIRAmplifierStage2_Start() routine.
 125:Generated_Source\PSoC4/PIRAmplifierStage2.c **** *
 126:Generated_Source\PSoC4/PIRAmplifierStage2.c **** *******************************************************************************/
 127:Generated_Source\PSoC4/PIRAmplifierStage2.c **** void PIRAmplifierStage2_Start(void)
 128:Generated_Source\PSoC4/PIRAmplifierStage2.c **** {
 129:Generated_Source\PSoC4/PIRAmplifierStage2.c ****     if(PIRAmplifierStage2_initVar == 0u)
 130:Generated_Source\PSoC4/PIRAmplifierStage2.c ****     {
 131:Generated_Source\PSoC4/PIRAmplifierStage2.c ****         PIRAmplifierStage2_Init();
 132:Generated_Source\PSoC4/PIRAmplifierStage2.c ****         PIRAmplifierStage2_initVar = 1u;
 133:Generated_Source\PSoC4/PIRAmplifierStage2.c ****     }
 134:Generated_Source\PSoC4/PIRAmplifierStage2.c **** 
 135:Generated_Source\PSoC4/PIRAmplifierStage2.c ****     PIRAmplifierStage2_Enable();
 136:Generated_Source\PSoC4/PIRAmplifierStage2.c **** }
 137:Generated_Source\PSoC4/PIRAmplifierStage2.c **** 
 138:Generated_Source\PSoC4/PIRAmplifierStage2.c **** 
 139:Generated_Source\PSoC4/PIRAmplifierStage2.c **** /*******************************************************************************
 140:Generated_Source\PSoC4/PIRAmplifierStage2.c **** * Function Name: PIRAmplifierStage2_Stop
 141:Generated_Source\PSoC4/PIRAmplifierStage2.c **** ****************************************************************************//**
 142:Generated_Source\PSoC4/PIRAmplifierStage2.c **** *
 143:Generated_Source\PSoC4/PIRAmplifierStage2.c **** *  Powers down the amplifier.
 144:Generated_Source\PSoC4/PIRAmplifierStage2.c **** *
 145:Generated_Source\PSoC4/PIRAmplifierStage2.c **** *******************************************************************************/
 146:Generated_Source\PSoC4/PIRAmplifierStage2.c **** void PIRAmplifierStage2_Stop(void)
 147:Generated_Source\PSoC4/PIRAmplifierStage2.c **** { 
  56              		.loc 1 147 0
  57              		.cfi_startproc
 148:Generated_Source\PSoC4/PIRAmplifierStage2.c ****     PIRAmplifierStage2_OA_RES_CTRL_REG &= (uint32)~PIRAmplifierStage2_OA_PWR_MODE_MASK;
  58              		.loc 1 148 0
  59 0000 024A     		ldr	r2, .L5
  60 0002 1368     		ldr	r3, [r2]
  61 0004 0321     		mov	r1, #3
  62 0006 8B43     		bic	r3, r1
  63 0008 1360     		str	r3, [r2]
 149:Generated_Source\PSoC4/PIRAmplifierStage2.c **** }
  64              		.loc 1 149 0
  65              		@ sp needed
  66 000a 7047     		bx	lr
  67              	.L6:
  68              		.align	2
  69              	.L5:
  70 000c 04003140 		.word	1076953092
  71              		.cfi_endproc
  72              	.LFE3:
  73              		.size	PIRAmplifierStage2_Stop, .-PIRAmplifierStage2_Stop
  74              		.section	.text.PIRAmplifierStage2_SetPower,"ax",%progbits
  75              		.align	2
  76              		.global	PIRAmplifierStage2_SetPower
  77              		.code	16
  78              		.thumb_func
  79              		.type	PIRAmplifierStage2_SetPower, %function
ARM GAS  C:\Users\raymond\AppData\Local\Temp\ccqa4qSr.s 			page 5


  80              	PIRAmplifierStage2_SetPower:
  81              	.LFB4:
 150:Generated_Source\PSoC4/PIRAmplifierStage2.c **** 
 151:Generated_Source\PSoC4/PIRAmplifierStage2.c **** 
 152:Generated_Source\PSoC4/PIRAmplifierStage2.c **** /*******************************************************************************
 153:Generated_Source\PSoC4/PIRAmplifierStage2.c **** * Function Name: PIRAmplifierStage2_SetPower
 154:Generated_Source\PSoC4/PIRAmplifierStage2.c **** ****************************************************************************//**
 155:Generated_Source\PSoC4/PIRAmplifierStage2.c **** *
 156:Generated_Source\PSoC4/PIRAmplifierStage2.c **** *  Sets the power level of amplifier.
 157:Generated_Source\PSoC4/PIRAmplifierStage2.c **** *
 158:Generated_Source\PSoC4/PIRAmplifierStage2.c **** * \param powerLevel
 159:Generated_Source\PSoC4/PIRAmplifierStage2.c **** *  The power level setting of amplifier. Possible values:
 160:Generated_Source\PSoC4/PIRAmplifierStage2.c **** *   * PIRAmplifierStage2_LOW - The lowest power consumption.
 161:Generated_Source\PSoC4/PIRAmplifierStage2.c **** *   * PIRAmplifierStage2_MED - The middle setting.
 162:Generated_Source\PSoC4/PIRAmplifierStage2.c **** *   * PIRAmplifierStage2_HIGH - The highest amplifier bandwidth.
 163:Generated_Source\PSoC4/PIRAmplifierStage2.c **** *
 164:Generated_Source\PSoC4/PIRAmplifierStage2.c **** *  \internal
 165:Generated_Source\PSoC4/PIRAmplifierStage2.c **** *   The PIRAmplifierStage2_internalGainPower variable is used to store the
 166:Generated_Source\PSoC4/PIRAmplifierStage2.c **** *   current gain and power level to set appropriate compensation settings.
 167:Generated_Source\PSoC4/PIRAmplifierStage2.c **** *
 168:Generated_Source\PSoC4/PIRAmplifierStage2.c **** *******************************************************************************/
 169:Generated_Source\PSoC4/PIRAmplifierStage2.c **** void PIRAmplifierStage2_SetPower(uint32 powerLevel)
 170:Generated_Source\PSoC4/PIRAmplifierStage2.c **** {
  82              		.loc 1 170 0
  83              		.cfi_startproc
  84              	.LVL0:
  85 0000 F0B5     		push	{r4, r5, r6, r7, lr}
  86              		.cfi_def_cfa_offset 20
  87              		.cfi_offset 4, -20
  88              		.cfi_offset 5, -16
  89              		.cfi_offset 6, -12
  90              		.cfi_offset 7, -8
  91              		.cfi_offset 14, -4
  92 0002 4746     		mov	r7, r8
  93 0004 80B4     		push	{r7}
  94              		.cfi_def_cfa_offset 24
  95              		.cfi_offset 8, -24
 171:Generated_Source\PSoC4/PIRAmplifierStage2.c ****     uint32 locTmp;
 172:Generated_Source\PSoC4/PIRAmplifierStage2.c ****     
 173:Generated_Source\PSoC4/PIRAmplifierStage2.c ****     /* Save the powerLevel */
 174:Generated_Source\PSoC4/PIRAmplifierStage2.c ****     PIRAmplifierStage2_internalGainPower &= (uint32) ~PIRAmplifierStage2_OA_PWR_MODE_MASK;
  96              		.loc 1 174 0
  97 0006 184D     		ldr	r5, .L8
  98 0008 0321     		mov	r1, #3
  99 000a 2B68     		ldr	r3, [r5]
 100 000c 8B43     		bic	r3, r1
 175:Generated_Source\PSoC4/PIRAmplifierStage2.c ****     PIRAmplifierStage2_internalGainPower |= powerLevel & PIRAmplifierStage2_OA_PWR_MODE_MASK;
 101              		.loc 1 175 0
 102 000e 0840     		and	r0, r1
 103              	.LVL1:
 104 0010 1843     		orr	r0, r3
 105 0012 2860     		str	r0, [r5]
 176:Generated_Source\PSoC4/PIRAmplifierStage2.c ****     
 177:Generated_Source\PSoC4/PIRAmplifierStage2.c ****     /* Save the rest of register bitfields */
 178:Generated_Source\PSoC4/PIRAmplifierStage2.c ****     locTmp = PIRAmplifierStage2_OA_RES_CTRL_REG &
 106              		.loc 1 178 0
 107 0014 154B     		ldr	r3, .L8+4
ARM GAS  C:\Users\raymond\AppData\Local\Temp\ccqa4qSr.s 			page 6


 108 0016 9846     		mov	r8, r3
 109 0018 1C68     		ldr	r4, [r3]
 110 001a 154A     		ldr	r2, .L8+8
 111 001c 1440     		and	r4, r2
 112              	.LVL2:
 179:Generated_Source\PSoC4/PIRAmplifierStage2.c ****         (uint32)~(PIRAmplifierStage2_OA_PWR_MODE_MASK | PIRAmplifierStage2_C_FB_MASK);
 180:Generated_Source\PSoC4/PIRAmplifierStage2.c ****            
 181:Generated_Source\PSoC4/PIRAmplifierStage2.c ****     /* Set the power and the feedback capacitor values into the control register */
 182:Generated_Source\PSoC4/PIRAmplifierStage2.c ****     PIRAmplifierStage2_OA_RES_CTRL_REG  = locTmp | PIRAmplifierStage2_GET_POWER | PIRAmplifierStage
 113              		.loc 1 182 0
 114 001e 0A1C     		mov	r2, r1
 115 0020 0240     		and	r2, r0
 116 0022 1443     		orr	r4, r2
 117              	.LVL3:
 118 0024 400C     		lsr	r0, r0, #17
 119 0026 0727     		mov	r7, #7
 120 0028 3840     		and	r0, r7
 121 002a 013A     		sub	r2, r2, #1
 122 002c 114E     		ldr	r6, .L8+12
 123 002e 4300     		lsl	r3, r0, #1
 124 0030 9C46     		mov	ip, r3
 125 0032 6044     		add	r0, r0, ip
 126 0034 8018     		add	r0, r0, r2
 127 0036 8000     		lsl	r0, r0, #2
 128 0038 8059     		ldr	r0, [r0, r6]
 129 003a F022     		mov	r2, #240
 130 003c 1205     		lsl	r2, r2, #20
 131 003e 0240     		and	r2, r0
 132 0040 1443     		orr	r4, r2
 133 0042 4346     		mov	r3, r8
 134 0044 1C60     		str	r4, [r3]
 183:Generated_Source\PSoC4/PIRAmplifierStage2.c ****     
 184:Generated_Source\PSoC4/PIRAmplifierStage2.c ****     /* Set the OA compensation capacitor value */
 185:Generated_Source\PSoC4/PIRAmplifierStage2.c ****     PIRAmplifierStage2_OA_COMP_TRIM_REG = PIRAmplifierStage2_GET_OA_COMP_TRIM;
 135              		.loc 1 185 0
 136 0046 2B68     		ldr	r3, [r5]
 137 0048 5A0C     		lsr	r2, r3, #17
 138 004a 1740     		and	r7, r2
 139 004c 0B40     		and	r3, r1
 140 004e 5A1E     		sub	r2, r3, #1
 141 0050 7B00     		lsl	r3, r7, #1
 142 0052 DB19     		add	r3, r3, r7
 143 0054 9B18     		add	r3, r3, r2
 144 0056 9B00     		lsl	r3, r3, #2
 145 0058 9B59     		ldr	r3, [r3, r6]
 146 005a 1940     		and	r1, r3
 147 005c 064B     		ldr	r3, .L8+16
 148 005e 1960     		str	r1, [r3]
 186:Generated_Source\PSoC4/PIRAmplifierStage2.c **** }
 149              		.loc 1 186 0
 150              		@ sp needed
 151 0060 04BC     		pop	{r2}
 152 0062 9046     		mov	r8, r2
 153 0064 F0BD     		pop	{r4, r5, r6, r7, pc}
 154              	.L9:
 155 0066 C046     		.align	2
 156              	.L8:
ARM GAS  C:\Users\raymond\AppData\Local\Temp\ccqa4qSr.s 			page 7


 157 0068 00000000 		.word	.LANCHOR0
 158 006c 04003140 		.word	1076953092
 159 0070 FCFFFFF0 		.word	-251658244
 160 0074 00000000 		.word	.LANCHOR1
 161 0078 080F3140 		.word	1076956936
 162              		.cfi_endproc
 163              	.LFE4:
 164              		.size	PIRAmplifierStage2_SetPower, .-PIRAmplifierStage2_SetPower
 165              		.section	.text.PIRAmplifierStage2_SetGain,"ax",%progbits
 166              		.align	2
 167              		.global	PIRAmplifierStage2_SetGain
 168              		.code	16
 169              		.thumb_func
 170              		.type	PIRAmplifierStage2_SetGain, %function
 171              	PIRAmplifierStage2_SetGain:
 172              	.LFB5:
 187:Generated_Source\PSoC4/PIRAmplifierStage2.c **** 
 188:Generated_Source\PSoC4/PIRAmplifierStage2.c **** 
 189:Generated_Source\PSoC4/PIRAmplifierStage2.c **** /*******************************************************************************
 190:Generated_Source\PSoC4/PIRAmplifierStage2.c **** * Function Name: PIRAmplifierStage2_SetGain
 191:Generated_Source\PSoC4/PIRAmplifierStage2.c **** ****************************************************************************//**
 192:Generated_Source\PSoC4/PIRAmplifierStage2.c **** *
 193:Generated_Source\PSoC4/PIRAmplifierStage2.c **** *  Sets values of the input and feedback resistors to set a 
 194:Generated_Source\PSoC4/PIRAmplifierStage2.c **** *  specific gain of the amplifier.
 195:Generated_Source\PSoC4/PIRAmplifierStage2.c **** *
 196:Generated_Source\PSoC4/PIRAmplifierStage2.c **** * \param gainLevel
 197:Generated_Source\PSoC4/PIRAmplifierStage2.c **** *  The gain setting of amplifier. Possible values:
 198:Generated_Source\PSoC4/PIRAmplifierStage2.c **** *   * PIRAmplifierStage2_GAIN_1    - gain 1.0.
 199:Generated_Source\PSoC4/PIRAmplifierStage2.c **** *   * PIRAmplifierStage2_GAIN_1_4  - gain 1.4.
 200:Generated_Source\PSoC4/PIRAmplifierStage2.c **** *   * PIRAmplifierStage2_GAIN_2    - gain 2.0.
 201:Generated_Source\PSoC4/PIRAmplifierStage2.c **** *   * PIRAmplifierStage2_GAIN_2_8  - gain 2.8.
 202:Generated_Source\PSoC4/PIRAmplifierStage2.c **** *   * PIRAmplifierStage2_GAIN_4    - gain 4.0.
 203:Generated_Source\PSoC4/PIRAmplifierStage2.c **** *   * PIRAmplifierStage2_GAIN_5_8  - gain 5.8.
 204:Generated_Source\PSoC4/PIRAmplifierStage2.c **** *   * PIRAmplifierStage2_GAIN_8    - gain 8.0.
 205:Generated_Source\PSoC4/PIRAmplifierStage2.c **** *   * PIRAmplifierStage2_GAIN_10_7 - gain 10.7.
 206:Generated_Source\PSoC4/PIRAmplifierStage2.c **** *   * PIRAmplifierStage2_GAIN_16   - gain 16.0
 207:Generated_Source\PSoC4/PIRAmplifierStage2.c **** *   * PIRAmplifierStage2_GAIN_21_3 - gain 21.3.
 208:Generated_Source\PSoC4/PIRAmplifierStage2.c **** *   * PIRAmplifierStage2_GAIN_32   - gain 32.0.
 209:Generated_Source\PSoC4/PIRAmplifierStage2.c **** *
 210:Generated_Source\PSoC4/PIRAmplifierStage2.c **** *  \internal
 211:Generated_Source\PSoC4/PIRAmplifierStage2.c **** *   The PIRAmplifierStage2_internalGainPower variable is used to store the
 212:Generated_Source\PSoC4/PIRAmplifierStage2.c **** *   current gain and power level to set appropriate compensation settings.
 213:Generated_Source\PSoC4/PIRAmplifierStage2.c **** *
 214:Generated_Source\PSoC4/PIRAmplifierStage2.c **** *******************************************************************************/
 215:Generated_Source\PSoC4/PIRAmplifierStage2.c **** void PIRAmplifierStage2_SetGain(uint32 gainLevel)
 216:Generated_Source\PSoC4/PIRAmplifierStage2.c **** {
 173              		.loc 1 216 0
 174              		.cfi_startproc
 175              	.LVL4:
 176 0000 F0B5     		push	{r4, r5, r6, r7, lr}
 177              		.cfi_def_cfa_offset 20
 178              		.cfi_offset 4, -20
 179              		.cfi_offset 5, -16
 180              		.cfi_offset 6, -12
 181              		.cfi_offset 7, -8
 182              		.cfi_offset 14, -4
 217:Generated_Source\PSoC4/PIRAmplifierStage2.c ****     uint32 locTmp;
ARM GAS  C:\Users\raymond\AppData\Local\Temp\ccqa4qSr.s 			page 8


 218:Generated_Source\PSoC4/PIRAmplifierStage2.c ****     
 219:Generated_Source\PSoC4/PIRAmplifierStage2.c ****     /* Save the gainLevel */
 220:Generated_Source\PSoC4/PIRAmplifierStage2.c ****     PIRAmplifierStage2_internalGainPower &= (uint32) ~PIRAmplifierStage2_RES_TAP_MASK;
 183              		.loc 1 220 0
 184 0002 184E     		ldr	r6, .L11
 185 0004 184A     		ldr	r2, .L11+4
 186 0006 3368     		ldr	r3, [r6]
 187 0008 1A40     		and	r2, r3
 221:Generated_Source\PSoC4/PIRAmplifierStage2.c ****     PIRAmplifierStage2_internalGainPower |= ((uint32)(gainLevel << PIRAmplifierStage2_RES_TAP_SHIFT
 188              		.loc 1 221 0
 189 000a 0004     		lsl	r0, r0, #16
 190              	.LVL5:
 191 000c F023     		mov	r3, #240
 192 000e 1B03     		lsl	r3, r3, #12
 193 0010 1840     		and	r0, r3
 194 0012 1043     		orr	r0, r2
 195 0014 3060     		str	r0, [r6]
 222:Generated_Source\PSoC4/PIRAmplifierStage2.c ****                                                                  PIRAmplifierStage2_RES_TAP_MASK;
 223:Generated_Source\PSoC4/PIRAmplifierStage2.c ****     /* Save the rest of register bitfields */
 224:Generated_Source\PSoC4/PIRAmplifierStage2.c ****     locTmp = PIRAmplifierStage2_OA_RES_CTRL_REG &
 196              		.loc 1 224 0
 197 0016 154A     		ldr	r2, .L11+8
 198 0018 9446     		mov	ip, r2
 199 001a 1768     		ldr	r7, [r2]
 200 001c 144A     		ldr	r2, .L11+12
 201 001e 1740     		and	r7, r2
 202              	.LVL6:
 225:Generated_Source\PSoC4/PIRAmplifierStage2.c ****         (uint32)~(PIRAmplifierStage2_RES_TAP_MASK | PIRAmplifierStage2_C_FB_MASK);
 226:Generated_Source\PSoC4/PIRAmplifierStage2.c ****     
 227:Generated_Source\PSoC4/PIRAmplifierStage2.c ****     /* Set the gain and the feedback capacitor values into the control register */
 228:Generated_Source\PSoC4/PIRAmplifierStage2.c ****     PIRAmplifierStage2_OA_RES_CTRL_REG = locTmp | (PIRAmplifierStage2_internalGainPower &
 203              		.loc 1 228 0
 204 0020 0340     		and	r3, r0
 205 0022 1F43     		orr	r7, r3
 206              	.LVL7:
 229:Generated_Source\PSoC4/PIRAmplifierStage2.c ****         PIRAmplifierStage2_RES_TAP_MASK) | PIRAmplifierStage2_GET_C_FB;
 207              		.loc 1 229 0
 208 0024 420C     		lsr	r2, r0, #17
 209 0026 0721     		mov	r1, #7
 210 0028 0A40     		and	r2, r1
 211 002a 0324     		mov	r4, #3
 212 002c 2040     		and	r0, r4
 213 002e 431E     		sub	r3, r0, #1
 214 0030 104D     		ldr	r5, .L11+16
 215 0032 5000     		lsl	r0, r2, #1
 216 0034 8018     		add	r0, r0, r2
 217 0036 C018     		add	r0, r0, r3
 218 0038 8000     		lsl	r0, r0, #2
 219 003a 4259     		ldr	r2, [r0, r5]
 220 003c F023     		mov	r3, #240
 221 003e 1B05     		lsl	r3, r3, #20
 222 0040 1340     		and	r3, r2
 223 0042 1F43     		orr	r7, r3
 228:Generated_Source\PSoC4/PIRAmplifierStage2.c ****         PIRAmplifierStage2_RES_TAP_MASK) | PIRAmplifierStage2_GET_C_FB;
 224              		.loc 1 228 0
 225 0044 6346     		mov	r3, ip
 226 0046 1F60     		str	r7, [r3]
ARM GAS  C:\Users\raymond\AppData\Local\Temp\ccqa4qSr.s 			page 9


 230:Generated_Source\PSoC4/PIRAmplifierStage2.c ****     
 231:Generated_Source\PSoC4/PIRAmplifierStage2.c ****     /* Set the OA compensation capacitor value */
 232:Generated_Source\PSoC4/PIRAmplifierStage2.c ****     PIRAmplifierStage2_OA_COMP_TRIM_REG = PIRAmplifierStage2_GET_OA_COMP_TRIM;
 227              		.loc 1 232 0
 228 0048 3368     		ldr	r3, [r6]
 229 004a 5A0C     		lsr	r2, r3, #17
 230 004c 1140     		and	r1, r2
 231 004e 2340     		and	r3, r4
 232 0050 5A1E     		sub	r2, r3, #1
 233 0052 4B00     		lsl	r3, r1, #1
 234 0054 5B18     		add	r3, r3, r1
 235 0056 9B18     		add	r3, r3, r2
 236 0058 9B00     		lsl	r3, r3, #2
 237 005a 5B59     		ldr	r3, [r3, r5]
 238 005c 1C40     		and	r4, r3
 239 005e 064B     		ldr	r3, .L11+20
 240 0060 1C60     		str	r4, [r3]
 233:Generated_Source\PSoC4/PIRAmplifierStage2.c **** }
 241              		.loc 1 233 0
 242              		@ sp needed
 243 0062 F0BD     		pop	{r4, r5, r6, r7, pc}
 244              	.L12:
 245              		.align	2
 246              	.L11:
 247 0064 00000000 		.word	.LANCHOR0
 248 0068 FFFFF0FF 		.word	-983041
 249 006c 04003140 		.word	1076953092
 250 0070 FFFFF0F0 		.word	-252641281
 251 0074 00000000 		.word	.LANCHOR1
 252 0078 080F3140 		.word	1076956936
 253              		.cfi_endproc
 254              	.LFE5:
 255              		.size	PIRAmplifierStage2_SetGain, .-PIRAmplifierStage2_SetGain
 256              		.section	.text.PIRAmplifierStage2_Init,"ax",%progbits
 257              		.align	2
 258              		.global	PIRAmplifierStage2_Init
 259              		.code	16
 260              		.thumb_func
 261              		.type	PIRAmplifierStage2_Init, %function
 262              	PIRAmplifierStage2_Init:
 263              	.LFB0:
  70:Generated_Source\PSoC4/PIRAmplifierStage2.c ****     /* Set default internal variable value */
 264              		.loc 1 70 0
 265              		.cfi_startproc
 266 0000 08B5     		push	{r3, lr}
 267              		.cfi_def_cfa_offset 8
 268              		.cfi_offset 3, -8
 269              		.cfi_offset 14, -4
  72:Generated_Source\PSoC4/PIRAmplifierStage2.c ****     
 270              		.loc 1 72 0
 271 0002 0321     		mov	r1, #3
 272 0004 0D4B     		ldr	r3, .L15
 273 0006 1960     		str	r1, [r3]
  75:Generated_Source\PSoC4/PIRAmplifierStage2.c ****     PIRAmplifierStage2_OA_RES_CTRL_REG &= (uint32) ~PIRAmplifierStage2_DEFAULT_OA_RES_CTRL_MASK;
 274              		.loc 1 75 0
 275 0008 0D4A     		ldr	r2, .L15+4
 276 000a 1368     		ldr	r3, [r2]
ARM GAS  C:\Users\raymond\AppData\Local\Temp\ccqa4qSr.s 			page 10


 277 000c 8020     		mov	r0, #128
 278 000e 0006     		lsl	r0, r0, #24
 279 0010 0343     		orr	r3, r0
 280 0012 1360     		str	r3, [r2]
  76:Generated_Source\PSoC4/PIRAmplifierStage2.c ****     PIRAmplifierStage2_OA_RES_CTRL_REG |= PIRAmplifierStage2_DEFAULT_OA_RES_CTRL;
 281              		.loc 1 76 0
 282 0014 0B4B     		ldr	r3, .L15+8
 283 0016 1868     		ldr	r0, [r3]
 284 0018 0B4A     		ldr	r2, .L15+12
 285 001a 0240     		and	r2, r0
 286 001c 1A60     		str	r2, [r3]
  77:Generated_Source\PSoC4/PIRAmplifierStage2.c ****     
 287              		.loc 1 77 0
 288 001e 1A68     		ldr	r2, [r3]
 289 0020 8020     		mov	r0, #128
 290 0022 0001     		lsl	r0, r0, #4
 291 0024 0243     		orr	r2, r0
 292 0026 1A60     		str	r2, [r3]
  85:Generated_Source\PSoC4/PIRAmplifierStage2.c ****     {
 293              		.loc 1 85 0
 294 0028 1B68     		ldr	r3, [r3]
 295 002a 1942     		tst	r1, r3
 296 002c 01D0     		beq	.L14
  88:Generated_Source\PSoC4/PIRAmplifierStage2.c ****     }
 297              		.loc 1 88 0
 298 002e FFF7FEFF 		bl	PIRAmplifierStage2_Enable
 299              	.LVL8:
 300              	.L14:
  92:Generated_Source\PSoC4/PIRAmplifierStage2.c **** }
 301              		.loc 1 92 0
 302 0032 0020     		mov	r0, #0
 303 0034 FFF7FEFF 		bl	PIRAmplifierStage2_SetGain
 304              	.LVL9:
  93:Generated_Source\PSoC4/PIRAmplifierStage2.c **** 
 305              		.loc 1 93 0
 306              		@ sp needed
 307 0038 08BD     		pop	{r3, pc}
 308              	.L16:
 309 003a C046     		.align	2
 310              	.L15:
 311 003c 00000000 		.word	.LANCHOR0
 312 0040 00003140 		.word	1076953088
 313 0044 04003140 		.word	1076953092
 314 0048 FBF7FFFF 		.word	-2053
 315              		.cfi_endproc
 316              	.LFE0:
 317              		.size	PIRAmplifierStage2_Init, .-PIRAmplifierStage2_Init
 318              		.section	.text.PIRAmplifierStage2_Start,"ax",%progbits
 319              		.align	2
 320              		.global	PIRAmplifierStage2_Start
 321              		.code	16
 322              		.thumb_func
 323              		.type	PIRAmplifierStage2_Start, %function
 324              	PIRAmplifierStage2_Start:
 325              	.LFB2:
 128:Generated_Source\PSoC4/PIRAmplifierStage2.c ****     if(PIRAmplifierStage2_initVar == 0u)
 326              		.loc 1 128 0
ARM GAS  C:\Users\raymond\AppData\Local\Temp\ccqa4qSr.s 			page 11


 327              		.cfi_startproc
 328 0000 08B5     		push	{r3, lr}
 329              		.cfi_def_cfa_offset 8
 330              		.cfi_offset 3, -8
 331              		.cfi_offset 14, -4
 129:Generated_Source\PSoC4/PIRAmplifierStage2.c ****     {
 332              		.loc 1 129 0
 333 0002 064B     		ldr	r3, .L19
 334 0004 1B79     		ldrb	r3, [r3, #4]
 335 0006 002B     		cmp	r3, #0
 336 0008 04D1     		bne	.L18
 131:Generated_Source\PSoC4/PIRAmplifierStage2.c ****         PIRAmplifierStage2_initVar = 1u;
 337              		.loc 1 131 0
 338 000a FFF7FEFF 		bl	PIRAmplifierStage2_Init
 339              	.LVL10:
 132:Generated_Source\PSoC4/PIRAmplifierStage2.c ****     }
 340              		.loc 1 132 0
 341 000e 0122     		mov	r2, #1
 342 0010 024B     		ldr	r3, .L19
 343 0012 1A71     		strb	r2, [r3, #4]
 344              	.L18:
 135:Generated_Source\PSoC4/PIRAmplifierStage2.c **** }
 345              		.loc 1 135 0
 346 0014 FFF7FEFF 		bl	PIRAmplifierStage2_Enable
 347              	.LVL11:
 136:Generated_Source\PSoC4/PIRAmplifierStage2.c **** 
 348              		.loc 1 136 0
 349              		@ sp needed
 350 0018 08BD     		pop	{r3, pc}
 351              	.L20:
 352 001a C046     		.align	2
 353              	.L19:
 354 001c 00000000 		.word	.LANCHOR0
 355              		.cfi_endproc
 356              	.LFE2:
 357              		.size	PIRAmplifierStage2_Start, .-PIRAmplifierStage2_Start
 358              		.section	.text.PIRAmplifierStage2_PumpControl,"ax",%progbits
 359              		.align	2
 360              		.global	PIRAmplifierStage2_PumpControl
 361              		.code	16
 362              		.thumb_func
 363              		.type	PIRAmplifierStage2_PumpControl, %function
 364              	PIRAmplifierStage2_PumpControl:
 365              	.LFB6:
 234:Generated_Source\PSoC4/PIRAmplifierStage2.c **** 
 235:Generated_Source\PSoC4/PIRAmplifierStage2.c **** 
 236:Generated_Source\PSoC4/PIRAmplifierStage2.c **** /*******************************************************************************
 237:Generated_Source\PSoC4/PIRAmplifierStage2.c **** * Function Name: PIRAmplifierStage2_PumpControl
 238:Generated_Source\PSoC4/PIRAmplifierStage2.c **** ****************************************************************************//**
 239:Generated_Source\PSoC4/PIRAmplifierStage2.c **** *
 240:Generated_Source\PSoC4/PIRAmplifierStage2.c **** *  Allows the user to turn the amplifier's boost pump on or off.
 241:Generated_Source\PSoC4/PIRAmplifierStage2.c **** *  By Default the PIRAmplifierStage2_Init() function turns the pump on.
 242:Generated_Source\PSoC4/PIRAmplifierStage2.c **** *  
 243:Generated_Source\PSoC4/PIRAmplifierStage2.c **** * \param onOff
 244:Generated_Source\PSoC4/PIRAmplifierStage2.c **** *  The boost pump setting. Possible values:
 245:Generated_Source\PSoC4/PIRAmplifierStage2.c **** *   * PIRAmplifierStage2_BOOST_OFF - Turn off the pump.
 246:Generated_Source\PSoC4/PIRAmplifierStage2.c **** *   * PIRAmplifierStage2_BOOST_ON  - Turn on the pump.
ARM GAS  C:\Users\raymond\AppData\Local\Temp\ccqa4qSr.s 			page 12


 247:Generated_Source\PSoC4/PIRAmplifierStage2.c **** *
 248:Generated_Source\PSoC4/PIRAmplifierStage2.c **** **********************************************************************************/
 249:Generated_Source\PSoC4/PIRAmplifierStage2.c **** void PIRAmplifierStage2_PumpControl(uint32 onOff)
 250:Generated_Source\PSoC4/PIRAmplifierStage2.c **** {
 366              		.loc 1 250 0
 367              		.cfi_startproc
 368              	.LVL12:
 251:Generated_Source\PSoC4/PIRAmplifierStage2.c ****     if(onOff == PIRAmplifierStage2_BOOST_ON)
 369              		.loc 1 251 0
 370 0000 0128     		cmp	r0, #1
 371 0002 06D1     		bne	.L22
 252:Generated_Source\PSoC4/PIRAmplifierStage2.c ****     {
 253:Generated_Source\PSoC4/PIRAmplifierStage2.c ****         PIRAmplifierStage2_OA_RES_CTRL_REG |= PIRAmplifierStage2_OA_PUMP_EN;
 372              		.loc 1 253 0
 373 0004 064A     		ldr	r2, .L24
 374 0006 1368     		ldr	r3, [r2]
 375 0008 8021     		mov	r1, #128
 376 000a 0901     		lsl	r1, r1, #4
 377 000c 0B43     		orr	r3, r1
 378 000e 1360     		str	r3, [r2]
 379 0010 04E0     		b	.L21
 380              	.L22:
 254:Generated_Source\PSoC4/PIRAmplifierStage2.c ****     }
 255:Generated_Source\PSoC4/PIRAmplifierStage2.c ****     else
 256:Generated_Source\PSoC4/PIRAmplifierStage2.c ****     {
 257:Generated_Source\PSoC4/PIRAmplifierStage2.c ****         PIRAmplifierStage2_OA_RES_CTRL_REG &= (uint32)~PIRAmplifierStage2_OA_PUMP_EN;
 381              		.loc 1 257 0
 382 0012 034A     		ldr	r2, .L24
 383 0014 1168     		ldr	r1, [r2]
 384 0016 034B     		ldr	r3, .L24+4
 385 0018 0B40     		and	r3, r1
 386 001a 1360     		str	r3, [r2]
 387              	.L21:
 258:Generated_Source\PSoC4/PIRAmplifierStage2.c ****     }
 259:Generated_Source\PSoC4/PIRAmplifierStage2.c **** }
 388              		.loc 1 259 0
 389              		@ sp needed
 390 001c 7047     		bx	lr
 391              	.L25:
 392 001e C046     		.align	2
 393              	.L24:
 394 0020 04003140 		.word	1076953092
 395 0024 FFF7FFFF 		.word	-2049
 396              		.cfi_endproc
 397              	.LFE6:
 398              		.size	PIRAmplifierStage2_PumpControl, .-PIRAmplifierStage2_PumpControl
 399              		.global	PIRAmplifierStage2_compTab
 400              		.global	PIRAmplifierStage2_internalGainPower
 401              		.global	PIRAmplifierStage2_initVar
 402              		.section	.rodata
 403              		.align	2
 404              		.set	.LANCHOR1,. + 0
 405              		.type	PIRAmplifierStage2_compTab, %object
 406              		.size	PIRAmplifierStage2_compTab, 72
 407              	PIRAmplifierStage2_compTab:
 408 0000 0200000F 		.word	251658242
 409 0004 0200000F 		.word	251658242
ARM GAS  C:\Users\raymond\AppData\Local\Temp\ccqa4qSr.s 			page 13


 410 0008 0200000F 		.word	251658242
 411 000c 02000008 		.word	134217730
 412 0010 02000009 		.word	150994946
 413 0014 02000009 		.word	150994946
 414 0018 01000003 		.word	50331649
 415 001c 02000005 		.word	83886082
 416 0020 02000004 		.word	67108866
 417 0024 01000000 		.word	1
 418 0028 02000002 		.word	33554434
 419 002c 02000003 		.word	50331650
 420 0030 01000000 		.word	1
 421 0034 02000000 		.word	2
 422 0038 02000001 		.word	16777218
 423 003c 01000000 		.word	1
 424 0040 01000000 		.word	1
 425 0044 01000000 		.word	1
 426              		.bss
 427              		.align	2
 428              		.set	.LANCHOR0,. + 0
 429              		.type	PIRAmplifierStage2_internalGainPower, %object
 430              		.size	PIRAmplifierStage2_internalGainPower, 4
 431              	PIRAmplifierStage2_internalGainPower:
 432 0000 00000000 		.space	4
 433              		.type	PIRAmplifierStage2_initVar, %object
 434              		.size	PIRAmplifierStage2_initVar, 1
 435              	PIRAmplifierStage2_initVar:
 436 0004 00       		.space	1
 437 0005 000000   		.text
 438              	.Letext0:
 439              		.file 2 "Generated_Source\\PSoC4\\cytypes.h"