ARM GAS  C:\Users\raymond\AppData\Local\Temp\cckriQuL.s 			page 1


   1              		.cpu cortex-m0plus
   2              		.fpu softvfp
   3              		.eabi_attribute 20, 1
   4              		.eabi_attribute 21, 1
   5              		.eabi_attribute 23, 3
   6              		.eabi_attribute 24, 1
   7              		.eabi_attribute 25, 1
   8              		.eabi_attribute 26, 1
   9              		.eabi_attribute 30, 1
  10              		.eabi_attribute 34, 0
  11              		.eabi_attribute 18, 4
  12              		.code	16
  13              		.file	"PIRAmplifierStage2_PM.c"
  14              		.text
  15              	.Ltext0:
  16              		.cfi_sections	.debug_frame
  17              		.section	.text.PIRAmplifierStage2_SaveConfig,"ax",%progbits
  18              		.align	2
  19              		.global	PIRAmplifierStage2_SaveConfig
  20              		.code	16
  21              		.thumb_func
  22              		.type	PIRAmplifierStage2_SaveConfig, %function
  23              	PIRAmplifierStage2_SaveConfig:
  24              	.LFB0:
  25              		.file 1 "Generated_Source\\PSoC4\\PIRAmplifierStage2_PM.c"
   1:Generated_Source\PSoC4/PIRAmplifierStage2_PM.c **** /***************************************************************************//**
   2:Generated_Source\PSoC4/PIRAmplifierStage2_PM.c **** * \file     PIRAmplifierStage2_PM.c  
   3:Generated_Source\PSoC4/PIRAmplifierStage2_PM.c **** * \version  1.0
   4:Generated_Source\PSoC4/PIRAmplifierStage2_PM.c **** *
   5:Generated_Source\PSoC4/PIRAmplifierStage2_PM.c **** * \brief
   6:Generated_Source\PSoC4/PIRAmplifierStage2_PM.c **** *  This file provides the power management source code to the API for PGA_P4 
   7:Generated_Source\PSoC4/PIRAmplifierStage2_PM.c **** *  Component.
   8:Generated_Source\PSoC4/PIRAmplifierStage2_PM.c **** *
   9:Generated_Source\PSoC4/PIRAmplifierStage2_PM.c **** ********************************************************************************
  10:Generated_Source\PSoC4/PIRAmplifierStage2_PM.c **** * \copyright
  11:Generated_Source\PSoC4/PIRAmplifierStage2_PM.c **** * Copyright 2016, Cypress Semiconductor Corporation.  All rights reserved.
  12:Generated_Source\PSoC4/PIRAmplifierStage2_PM.c **** * You may use this file only in accordance with the license, terms, conditions,
  13:Generated_Source\PSoC4/PIRAmplifierStage2_PM.c **** * disclaimers, and limitations in the end user license agreement accompanying
  14:Generated_Source\PSoC4/PIRAmplifierStage2_PM.c **** * the software package with which this file was provided.
  15:Generated_Source\PSoC4/PIRAmplifierStage2_PM.c **** *******************************************************************************/
  16:Generated_Source\PSoC4/PIRAmplifierStage2_PM.c **** 
  17:Generated_Source\PSoC4/PIRAmplifierStage2_PM.c **** #include "PIRAmplifierStage2_PVT.h"
  18:Generated_Source\PSoC4/PIRAmplifierStage2_PM.c **** 
  19:Generated_Source\PSoC4/PIRAmplifierStage2_PM.c **** 
  20:Generated_Source\PSoC4/PIRAmplifierStage2_PM.c **** /*******************************************************************************
  21:Generated_Source\PSoC4/PIRAmplifierStage2_PM.c **** * Function Name: PIRAmplifierStage2_SaveConfig
  22:Generated_Source\PSoC4/PIRAmplifierStage2_PM.c **** ****************************************************************************//**
  23:Generated_Source\PSoC4/PIRAmplifierStage2_PM.c **** *
  24:Generated_Source\PSoC4/PIRAmplifierStage2_PM.c **** *  Empty function. Included for consistency with other components.
  25:Generated_Source\PSoC4/PIRAmplifierStage2_PM.c **** *
  26:Generated_Source\PSoC4/PIRAmplifierStage2_PM.c **** *******************************************************************************/
  27:Generated_Source\PSoC4/PIRAmplifierStage2_PM.c **** void PIRAmplifierStage2_SaveConfig(void)
  28:Generated_Source\PSoC4/PIRAmplifierStage2_PM.c **** {
  26              		.loc 1 28 0
  27              		.cfi_startproc
  29:Generated_Source\PSoC4/PIRAmplifierStage2_PM.c ****     /* Nothing to save as registers are System reset on retention flops */
  30:Generated_Source\PSoC4/PIRAmplifierStage2_PM.c **** }
ARM GAS  C:\Users\raymond\AppData\Local\Temp\cckriQuL.s 			page 2


  28              		.loc 1 30 0
  29              		@ sp needed
  30 0000 7047     		bx	lr
  31              		.cfi_endproc
  32              	.LFE0:
  33              		.size	PIRAmplifierStage2_SaveConfig, .-PIRAmplifierStage2_SaveConfig
  34 0002 C046     		.section	.text.PIRAmplifierStage2_RestoreConfig,"ax",%progbits
  35              		.align	2
  36              		.global	PIRAmplifierStage2_RestoreConfig
  37              		.code	16
  38              		.thumb_func
  39              		.type	PIRAmplifierStage2_RestoreConfig, %function
  40              	PIRAmplifierStage2_RestoreConfig:
  41              	.LFB1:
  31:Generated_Source\PSoC4/PIRAmplifierStage2_PM.c **** 
  32:Generated_Source\PSoC4/PIRAmplifierStage2_PM.c **** 
  33:Generated_Source\PSoC4/PIRAmplifierStage2_PM.c **** /*******************************************************************************  
  34:Generated_Source\PSoC4/PIRAmplifierStage2_PM.c **** * Function Name: PIRAmplifierStage2_RestoreConfig
  35:Generated_Source\PSoC4/PIRAmplifierStage2_PM.c **** ****************************************************************************//**
  36:Generated_Source\PSoC4/PIRAmplifierStage2_PM.c **** *
  37:Generated_Source\PSoC4/PIRAmplifierStage2_PM.c **** *  Empty function. Included for consistency with other components.
  38:Generated_Source\PSoC4/PIRAmplifierStage2_PM.c **** *
  39:Generated_Source\PSoC4/PIRAmplifierStage2_PM.c **** *******************************************************************************/
  40:Generated_Source\PSoC4/PIRAmplifierStage2_PM.c **** void PIRAmplifierStage2_RestoreConfig(void)
  41:Generated_Source\PSoC4/PIRAmplifierStage2_PM.c **** {
  42              		.loc 1 41 0
  43              		.cfi_startproc
  42:Generated_Source\PSoC4/PIRAmplifierStage2_PM.c ****     /* Nothing to restore */
  43:Generated_Source\PSoC4/PIRAmplifierStage2_PM.c **** }
  44              		.loc 1 43 0
  45              		@ sp needed
  46 0000 7047     		bx	lr
  47              		.cfi_endproc
  48              	.LFE1:
  49              		.size	PIRAmplifierStage2_RestoreConfig, .-PIRAmplifierStage2_RestoreConfig
  50 0002 C046     		.section	.text.PIRAmplifierStage2_Sleep,"ax",%progbits
  51              		.align	2
  52              		.global	PIRAmplifierStage2_Sleep
  53              		.code	16
  54              		.thumb_func
  55              		.type	PIRAmplifierStage2_Sleep, %function
  56              	PIRAmplifierStage2_Sleep:
  57              	.LFB2:
  44:Generated_Source\PSoC4/PIRAmplifierStage2_PM.c **** 
  45:Generated_Source\PSoC4/PIRAmplifierStage2_PM.c **** 
  46:Generated_Source\PSoC4/PIRAmplifierStage2_PM.c **** /*******************************************************************************   
  47:Generated_Source\PSoC4/PIRAmplifierStage2_PM.c **** * Function Name: PIRAmplifierStage2_Sleep
  48:Generated_Source\PSoC4/PIRAmplifierStage2_PM.c **** ****************************************************************************//**
  49:Generated_Source\PSoC4/PIRAmplifierStage2_PM.c **** *
  50:Generated_Source\PSoC4/PIRAmplifierStage2_PM.c **** *  When the "Deep sleep operation" is disabled then the function disables 
  51:Generated_Source\PSoC4/PIRAmplifierStage2_PM.c **** *  component's operation and saves its configuration. Should be called 
  52:Generated_Source\PSoC4/PIRAmplifierStage2_PM.c **** *  just prior to entering sleep.
  53:Generated_Source\PSoC4/PIRAmplifierStage2_PM.c **** *  When the "Deep sleep operation" is enabled then the function does nothing
  54:Generated_Source\PSoC4/PIRAmplifierStage2_PM.c **** *  and the component continues to operate during Deep Sleep state.
  55:Generated_Source\PSoC4/PIRAmplifierStage2_PM.c **** *
  56:Generated_Source\PSoC4/PIRAmplifierStage2_PM.c **** *  \internal
  57:Generated_Source\PSoC4/PIRAmplifierStage2_PM.c **** *   The PIRAmplifierStage2_backup.enableState is modified 
ARM GAS  C:\Users\raymond\AppData\Local\Temp\cckriQuL.s 			page 3


  58:Generated_Source\PSoC4/PIRAmplifierStage2_PM.c **** *   depending on the enable state of the block before entering to sleep mode.
  59:Generated_Source\PSoC4/PIRAmplifierStage2_PM.c **** *
  60:Generated_Source\PSoC4/PIRAmplifierStage2_PM.c **** *******************************************************************************/
  61:Generated_Source\PSoC4/PIRAmplifierStage2_PM.c **** void PIRAmplifierStage2_Sleep(void)
  62:Generated_Source\PSoC4/PIRAmplifierStage2_PM.c **** {
  58              		.loc 1 62 0
  59              		.cfi_startproc
  60 0000 08B5     		push	{r3, lr}
  61              		.cfi_def_cfa_offset 8
  62              		.cfi_offset 3, -8
  63              		.cfi_offset 14, -4
  63:Generated_Source\PSoC4/PIRAmplifierStage2_PM.c ****     #if(!PIRAmplifierStage2_CHECK_DEEPSLEEP_SUPPORT)
  64:Generated_Source\PSoC4/PIRAmplifierStage2_PM.c ****         if((PIRAmplifierStage2_OA_RES_CTRL_REG & PIRAmplifierStage2_OA_PWR_MODE_MASK) != 0u)
  64              		.loc 1 64 0
  65 0002 094B     		ldr	r3, .L6
  66 0004 1B68     		ldr	r3, [r3]
  67 0006 9B07     		lsl	r3, r3, #30
  68 0008 08D0     		beq	.L4
  65:Generated_Source\PSoC4/PIRAmplifierStage2_PM.c ****         {
  66:Generated_Source\PSoC4/PIRAmplifierStage2_PM.c ****             PIRAmplifierStage2_internalGainPower |= PIRAmplifierStage2_ENABLED;
  69              		.loc 1 66 0
  70 000a 084A     		ldr	r2, .L6+4
  71 000c 8023     		mov	r3, #128
  72 000e 1B06     		lsl	r3, r3, #24
  73 0010 1168     		ldr	r1, [r2]
  74 0012 0B43     		orr	r3, r1
  75 0014 1360     		str	r3, [r2]
  67:Generated_Source\PSoC4/PIRAmplifierStage2_PM.c ****             PIRAmplifierStage2_Stop();
  76              		.loc 1 67 0
  77 0016 FFF7FEFF 		bl	PIRAmplifierStage2_Stop
  78              	.LVL0:
  79 001a 04E0     		b	.L3
  80              	.L4:
  68:Generated_Source\PSoC4/PIRAmplifierStage2_PM.c ****         }
  69:Generated_Source\PSoC4/PIRAmplifierStage2_PM.c ****         else /* The component is disabled */
  70:Generated_Source\PSoC4/PIRAmplifierStage2_PM.c ****         {
  71:Generated_Source\PSoC4/PIRAmplifierStage2_PM.c ****             PIRAmplifierStage2_internalGainPower &= (uint32) ~PIRAmplifierStage2_ENABLED;
  81              		.loc 1 71 0
  82 001c 034A     		ldr	r2, .L6+4
  83 001e 1368     		ldr	r3, [r2]
  84 0020 5B00     		lsl	r3, r3, #1
  85 0022 5B08     		lsr	r3, r3, #1
  86 0024 1360     		str	r3, [r2]
  87              	.L3:
  72:Generated_Source\PSoC4/PIRAmplifierStage2_PM.c ****         }
  73:Generated_Source\PSoC4/PIRAmplifierStage2_PM.c ****         /* Save the configuration */
  74:Generated_Source\PSoC4/PIRAmplifierStage2_PM.c ****         PIRAmplifierStage2_SaveConfig();
  75:Generated_Source\PSoC4/PIRAmplifierStage2_PM.c ****     #endif /* (PIRAmplifierStage2_CHECK_DEEPSLEEP_SUPPORT) */
  76:Generated_Source\PSoC4/PIRAmplifierStage2_PM.c **** }
  88              		.loc 1 76 0
  89              		@ sp needed
  90 0026 08BD     		pop	{r3, pc}
  91              	.L7:
  92              		.align	2
  93              	.L6:
  94 0028 04003140 		.word	1076953092
  95 002c 00000000 		.word	PIRAmplifierStage2_internalGainPower
ARM GAS  C:\Users\raymond\AppData\Local\Temp\cckriQuL.s 			page 4


  96              		.cfi_endproc
  97              	.LFE2:
  98              		.size	PIRAmplifierStage2_Sleep, .-PIRAmplifierStage2_Sleep
  99              		.section	.text.PIRAmplifierStage2_Wakeup,"ax",%progbits
 100              		.align	2
 101              		.global	PIRAmplifierStage2_Wakeup
 102              		.code	16
 103              		.thumb_func
 104              		.type	PIRAmplifierStage2_Wakeup, %function
 105              	PIRAmplifierStage2_Wakeup:
 106              	.LFB3:
  77:Generated_Source\PSoC4/PIRAmplifierStage2_PM.c **** 
  78:Generated_Source\PSoC4/PIRAmplifierStage2_PM.c **** 
  79:Generated_Source\PSoC4/PIRAmplifierStage2_PM.c **** /*******************************************************************************
  80:Generated_Source\PSoC4/PIRAmplifierStage2_PM.c **** * Function Name: PIRAmplifierStage2_Wakeup
  81:Generated_Source\PSoC4/PIRAmplifierStage2_PM.c **** ****************************************************************************//**
  82:Generated_Source\PSoC4/PIRAmplifierStage2_PM.c **** *
  83:Generated_Source\PSoC4/PIRAmplifierStage2_PM.c **** *  When the "Deep sleep operation" is disabled then the function enables
  84:Generated_Source\PSoC4/PIRAmplifierStage2_PM.c **** *  block's operation and restores its configuration. Should be called
  85:Generated_Source\PSoC4/PIRAmplifierStage2_PM.c **** *  just after awaking from sleep.
  86:Generated_Source\PSoC4/PIRAmplifierStage2_PM.c **** *  When the "Deep sleep operation" is enabled then the function does nothing
  87:Generated_Source\PSoC4/PIRAmplifierStage2_PM.c **** *  and the component continues to operate during Active state.
  88:Generated_Source\PSoC4/PIRAmplifierStage2_PM.c **** *
  89:Generated_Source\PSoC4/PIRAmplifierStage2_PM.c **** *  \internal
  90:Generated_Source\PSoC4/PIRAmplifierStage2_PM.c **** *   The PIRAmplifierStage2_backup.enableState is used to 
  91:Generated_Source\PSoC4/PIRAmplifierStage2_PM.c **** *   restore the enable state of block after wakeup from sleep mode.
  92:Generated_Source\PSoC4/PIRAmplifierStage2_PM.c **** * 
  93:Generated_Source\PSoC4/PIRAmplifierStage2_PM.c **** *******************************************************************************/
  94:Generated_Source\PSoC4/PIRAmplifierStage2_PM.c **** void PIRAmplifierStage2_Wakeup(void)
  95:Generated_Source\PSoC4/PIRAmplifierStage2_PM.c **** {
 107              		.loc 1 95 0
 108              		.cfi_startproc
 109 0000 08B5     		push	{r3, lr}
 110              		.cfi_def_cfa_offset 8
 111              		.cfi_offset 3, -8
 112              		.cfi_offset 14, -4
  96:Generated_Source\PSoC4/PIRAmplifierStage2_PM.c ****     #if(!PIRAmplifierStage2_CHECK_DEEPSLEEP_SUPPORT)
  97:Generated_Source\PSoC4/PIRAmplifierStage2_PM.c ****         /* Restore the configurations */
  98:Generated_Source\PSoC4/PIRAmplifierStage2_PM.c ****         PIRAmplifierStage2_RestoreConfig();
  99:Generated_Source\PSoC4/PIRAmplifierStage2_PM.c ****         /* Enables the component operation */
 100:Generated_Source\PSoC4/PIRAmplifierStage2_PM.c ****         if((PIRAmplifierStage2_internalGainPower & PIRAmplifierStage2_ENABLED) != 0u)
 113              		.loc 1 100 0
 114 0002 034B     		ldr	r3, .L10
 115 0004 1B68     		ldr	r3, [r3]
 116 0006 002B     		cmp	r3, #0
 117 0008 01DA     		bge	.L8
 101:Generated_Source\PSoC4/PIRAmplifierStage2_PM.c ****         {
 102:Generated_Source\PSoC4/PIRAmplifierStage2_PM.c ****             PIRAmplifierStage2_Enable();
 118              		.loc 1 102 0
 119 000a FFF7FEFF 		bl	PIRAmplifierStage2_Enable
 120              	.LVL1:
 121              	.L8:
 103:Generated_Source\PSoC4/PIRAmplifierStage2_PM.c ****         } /* Do nothing if component was disabled before */
 104:Generated_Source\PSoC4/PIRAmplifierStage2_PM.c ****     #endif /* (PIRAmplifierStage2_CHECK_DEEPSLEEP_SUPPORT) */
 105:Generated_Source\PSoC4/PIRAmplifierStage2_PM.c **** }
 122              		.loc 1 105 0
 123              		@ sp needed
ARM GAS  C:\Users\raymond\AppData\Local\Temp\cckriQuL.s 			page 5


 124 000e 08BD     		pop	{r3, pc}
 125              	.L11:
 126              		.align	2
 127              	.L10:
 128 0010 00000000 		.word	PIRAmplifierStage2_internalGainPower
 129              		.cfi_endproc
 130              	.LFE3:
 131              		.size	PIRAmplifierStage2_Wakeup, .-PIRAmplifierStage2_Wakeup
 132              		.text
 133              	.Letext0:
 134              		.file 2 "Generated_Source\\PSoC4\\cytypes.h"
 135              		.file 3 "Generated_Source\\PSoC4\\PIRAmplifierStage2.h"
 136              		.file 4 "Generated_Source\\PSoC4\\PIRAmplifierStage2_PVT.h"